---
triple:          'x86_64-apple-darwin'
binary-path:     'build/knapsack_distributed'
relocations:
  - { offsetInCU: 0x59, offset: 0x59, size: 0x8, addend: 0x0, symName: __ZN7cxxopts12_GLOBAL__N_16LQUOTEE, symObjAddr: 0x2694B0, symBinAddr: 0x100022000, symSize: 0x0 }
  - { offsetInCU: 0x73, offset: 0x73, size: 0x8, addend: 0x0, symName: __ZN7cxxopts12_GLOBAL__N_16RQUOTEE, symObjAddr: 0x2694C8, symBinAddr: 0x100022018, symSize: 0x0 }
  - { offsetInCU: 0x8D, offset: 0x8D, size: 0x8, addend: 0x0, symName: __ZN7cxxopts12_GLOBAL__N_114option_matcherE, symObjAddr: 0x2695A0, symBinAddr: 0x1000220F0, symSize: 0x0 }
  - { offsetInCU: 0xA7, offset: 0xA7, size: 0x8, addend: 0x0, symName: __ZN7cxxopts12_GLOBAL__N_116option_specifierE, symObjAddr: 0x2695E0, symBinAddr: 0x100022130, symSize: 0x0 }
  - { offsetInCU: 0x1AE, offset: 0x1AE, size: 0x8, addend: 0x0, symName: __ZN7cxxopts6values12_GLOBAL__N_115integer_patternE, symObjAddr: 0x2694E0, symBinAddr: 0x100022030, symSize: 0x0 }
  - { offsetInCU: 0x1C8, offset: 0x1C8, size: 0x8, addend: 0x0, symName: __ZN7cxxopts6values12_GLOBAL__N_114truthy_patternE, symObjAddr: 0x269520, symBinAddr: 0x100022070, symSize: 0x0 }
  - { offsetInCU: 0x1E2, offset: 0x1E2, size: 0x8, addend: 0x0, symName: __ZN7cxxopts6values12_GLOBAL__N_113falsy_patternE, symObjAddr: 0x269560, symBinAddr: 0x1000220B0, symSize: 0x0 }
  - { offsetInCU: 0x493, offset: 0x493, size: 0x8, addend: 0x0, symName: __ZN7cxxopts6values14integer_parserIiEEvRKNSt3__112basic_stringIcNS2_11char_traitsIcEENS2_9allocatorIcEEEERT_, symObjAddr: 0x1A860, symBinAddr: 0x10001BDE0, symSize: 0x470 }
  - { offsetInCU: 0x16B7, offset: 0x16B7, size: 0x8, addend: 0x0, symName: __ZN7cxxopts6values11parse_valueERKNSt3__112basic_stringIcNS1_11char_traitsIcEENS1_9allocatorIcEEEERb, symObjAddr: 0x1BBE0, symBinAddr: 0x10001D140, symSize: 0x2F0 }
  - { offsetInCU: 0x10DF9, offset: 0x10DF9, size: 0x8, addend: 0x0, symName: __ZNSt3__1L19piecewise_constructE, symObjAddr: 0x1E8CF, symBinAddr: 0x10001DA9B, symSize: 0x0 }
  - { offsetInCU: 0x22884, offset: 0x22884, size: 0x8, addend: 0x0, symName: __ZNSt3__124__put_character_sequenceB7v160006IcNS_11char_traitsIcEEEERNS_13basic_ostreamIT_T0_EES7_PKS4_m, symObjAddr: 0x19E20, symBinAddr: 0x10001B3C0, symSize: 0x150 }
  - { offsetInCU: 0x2B726, offset: 0x2B726, size: 0x8, addend: 0x0, symName: __ZNSt3__14endlB7v160006IcNS_11char_traitsIcEEEERNS_13basic_ostreamIT_T0_EES7_, symObjAddr: 0xF60, symBinAddr: 0x100002500, symSize: 0x90 }
  - { offsetInCU: 0x2F4EC, offset: 0x2F4EC, size: 0x8, addend: 0x0, symName: __ZNSt3__115allocate_sharedB7v160006IN7cxxopts6values14standard_valueIiEENS_9allocatorIS4_EEJEvEENS_10shared_ptrIT_EERKT0_DpOT1_, symObjAddr: 0x1A0E0, symBinAddr: 0x10001B680, symSize: 0x120 }
  - { offsetInCU: 0x2FC0B, offset: 0x2FC0B, size: 0x8, addend: 0x0, symName: __ZNSt3__115allocate_sharedB7v160006IN7cxxopts6values14standard_valueIbEENS_9allocatorIS4_EEJEvEENS_10shared_ptrIT_EERKT0_DpOT1_, symObjAddr: 0x1B3C0, symBinAddr: 0x10001C940, symSize: 0xE0 }
  - { offsetInCU: 0x30115, offset: 0x30115, size: 0x8, addend: 0x0, symName: __ZNSt3__1lsB7v160006IcNS_11char_traitsIcEENS_9allocatorIcEEEERNS_13basic_ostreamIT_T0_EES9_RKNS_12basic_stringIS6_S7_T1_EE, symObjAddr: 0x4260, symBinAddr: 0x100005800, symSize: 0x30 }
  - { offsetInCU: 0x31293, offset: 0x31293, size: 0x8, addend: 0x0, symName: __ZNSt3__119__throw_regex_errorB7v160006ILNS_15regex_constants10error_typeE12EEEvv, symObjAddr: 0x7380, symBinAddr: 0x100008920, symSize: 0x50 }
  - { offsetInCU: 0x312B9, offset: 0x312B9, size: 0x8, addend: 0x0, symName: __ZNSt3__119__throw_regex_errorB7v160006ILNS_15regex_constants10error_typeE16EEEvv, symObjAddr: 0x73D0, symBinAddr: 0x100008970, symSize: 0x50 }
  - { offsetInCU: 0x315B1, offset: 0x315B1, size: 0x8, addend: 0x0, symName: __ZNSt3__120__throw_length_errorB7v160006EPKc, symObjAddr: 0x76E0, symBinAddr: 0x100008C80, symSize: 0x50 }
  - { offsetInCU: 0x32972, offset: 0x32972, size: 0x8, addend: 0x0, symName: __ZNSt3__127__tree_balance_after_insertB7v160006IPNS_16__tree_node_baseIPvEEEEvT_S5_, symObjAddr: 0xABC0, symBinAddr: 0x10000C160, symSize: 0x160 }
  - { offsetInCU: 0x33B24, offset: 0x33B24, size: 0x8, addend: 0x0, symName: __ZNSt3__119__throw_regex_errorB7v160006ILNS_15regex_constants10error_typeE17EEEvv, symObjAddr: 0x11680, symBinAddr: 0x100012C20, symSize: 0x50 }
  - { offsetInCU: 0x34A97, offset: 0x34A97, size: 0x8, addend: 0x0, symName: __ZNSt3__119__throw_regex_errorB7v160006ILNS_15regex_constants10error_typeE14EEEvv, symObjAddr: 0x11F40, symBinAddr: 0x1000134E0, symSize: 0x50 }
  - { offsetInCU: 0x34BC9, offset: 0x34BC9, size: 0x8, addend: 0x0, symName: __ZNSt3__119__throw_regex_errorB7v160006ILNS_15regex_constants10error_typeE15EEEvv, symObjAddr: 0x191C0, symBinAddr: 0x10001A760, symSize: 0x50 }
  - { offsetInCU: 0x34E0F, offset: 0x34E0F, size: 0x8, addend: 0x0, symName: __ZNSt3__119__throw_regex_errorB7v160006ILNS_15regex_constants10error_typeE6EEEvv, symObjAddr: 0x12CC0, symBinAddr: 0x100014260, symSize: 0x50 }
  - { offsetInCU: 0x34FB5, offset: 0x34FB5, size: 0x8, addend: 0x0, symName: __ZNSt3__119__throw_regex_errorB7v160006ILNS_15regex_constants10error_typeE11EEEvv, symObjAddr: 0x13560, symBinAddr: 0x100014B00, symSize: 0x50 }
  - { offsetInCU: 0x34FF9, offset: 0x34FF9, size: 0x8, addend: 0x0, symName: __ZNSt3__119__throw_regex_errorB7v160006ILNS_15regex_constants10error_typeE8EEEvv, symObjAddr: 0x18BD0, symBinAddr: 0x10001A170, symSize: 0x50 }
  - { offsetInCU: 0x3501F, offset: 0x3501F, size: 0x8, addend: 0x0, symName: __ZNSt3__119__throw_regex_errorB7v160006ILNS_15regex_constants10error_typeE7EEEvv, symObjAddr: 0x18C20, symBinAddr: 0x10001A1C0, symSize: 0x50 }
  - { offsetInCU: 0x35126, offset: 0x35126, size: 0x8, addend: 0x0, symName: __ZNSt3__119__throw_regex_errorB7v160006ILNS_15regex_constants10error_typeE4EEEvv, symObjAddr: 0x13FE0, symBinAddr: 0x100015580, symSize: 0x50 }
  - { offsetInCU: 0x3514C, offset: 0x3514C, size: 0x8, addend: 0x0, symName: __ZNSt3__119__throw_regex_errorB7v160006ILNS_15regex_constants10error_typeE3EEEvv, symObjAddr: 0x137D0, symBinAddr: 0x100014D70, symSize: 0x50 }
  - { offsetInCU: 0x35172, offset: 0x35172, size: 0x8, addend: 0x0, symName: __ZNSt3__119__throw_regex_errorB7v160006ILNS_15regex_constants10error_typeE5EEEvv, symObjAddr: 0x16390, symBinAddr: 0x100017930, symSize: 0x50 }
  - { offsetInCU: 0x35E1F, offset: 0x35E1F, size: 0x8, addend: 0x0, symName: __ZNSt3__119__throw_regex_errorB7v160006ILNS_15regex_constants10error_typeE2EEEvv, symObjAddr: 0x17DA0, symBinAddr: 0x100019340, symSize: 0x50 }
  - { offsetInCU: 0x35E45, offset: 0x35E45, size: 0x8, addend: 0x0, symName: __ZNSt3__119__throw_regex_errorB7v160006ILNS_15regex_constants10error_typeE1EEEvv, symObjAddr: 0x179C0, symBinAddr: 0x100018F60, symSize: 0x50 }
  - { offsetInCU: 0x35EA7, offset: 0x35EA7, size: 0x8, addend: 0x0, symName: __ZNSt3__119__throw_regex_errorB7v160006ILNS_15regex_constants10error_typeE9EEEvv, symObjAddr: 0x188E0, symBinAddr: 0x100019E80, symSize: 0x50 }
  - { offsetInCU: 0x3660D, offset: 0x3660D, size: 0x8, addend: 0x0, symName: __ZNSt3__116__pad_and_outputB7v160006IcNS_11char_traitsIcEEEENS_19ostreambuf_iteratorIT_T0_EES6_PKS4_S8_S8_RNS_8ios_baseES4_, symObjAddr: 0x19F70, symBinAddr: 0x10001B510, symSize: 0x150 }
  - { offsetInCU: 0x372CC, offset: 0x372CC, size: 0x8, addend: 0x0, symName: __ZNSt3__115allocate_sharedB7v160006IN7cxxopts6values14standard_valueIiEENS_9allocatorIS4_EEJRKS4_EvEENS_10shared_ptrIT_EERKT0_DpOT1_, symObjAddr: 0x1A660, symBinAddr: 0x10001BBE0, symSize: 0xF0 }
  - { offsetInCU: 0x37850, offset: 0x37850, size: 0x8, addend: 0x0, symName: __ZNSt3__120__throw_bad_weak_ptrB7v160006Ev, symObjAddr: 0x1B380, symBinAddr: 0x10001C900, symSize: 0x40 }
  - { offsetInCU: 0x38683, offset: 0x38683, size: 0x8, addend: 0x0, symName: __ZNSt3__115allocate_sharedB7v160006IN7cxxopts6values14standard_valueIbEENS_9allocatorIS4_EEJRKS4_EvEENS_10shared_ptrIT_EERKT0_DpOT1_, symObjAddr: 0x1B9E0, symBinAddr: 0x10001CF40, symSize: 0xF0 }
  - { offsetInCU: 0x39561, offset: 0x39561, size: 0x8, addend: 0x0, symName: __ZSt28__throw_bad_array_new_lengthB7v160006v, symObjAddr: 0x4850, symBinAddr: 0x100005DF0, symSize: 0x40 }
  - { offsetInCU: 0x3A6B4, offset: 0x3A6B4, size: 0x8, addend: 0x0, symName: _world_size, symObjAddr: 0x269620, symBinAddr: 0x100022170, symSize: 0x0 }
  - { offsetInCU: 0x3A6CA, offset: 0x3A6CA, size: 0x8, addend: 0x0, symName: _world_rank, symObjAddr: 0x269624, symBinAddr: 0x100022174, symSize: 0x0 }
  - { offsetInCU: 0x3F2F4, offset: 0x3F2F4, size: 0x8, addend: 0x0, symName: __ZNSt3__111basic_regexIcNS_12regex_traitsIcEEED1Ev, symObjAddr: 0x0, symBinAddr: 0x1000015A0, symSize: 0x50 }
  - { offsetInCU: 0x3F787, offset: 0x3F787, size: 0x8, addend: 0x0, symName: __Z4testPFiRKNSt3__16vectorI4ItemNS_9allocatorIS1_EEEEiE, symObjAddr: 0x50, symBinAddr: 0x1000015F0, symSize: 0xF10 }
  - { offsetInCU: 0x43540, offset: 0x43540, size: 0x8, addend: 0x0, symName: __Z12test_threadsPFiRKNSt3__16vectorI4ItemNS_9allocatorIS1_EEEEijEj, symObjAddr: 0xFF0, symBinAddr: 0x100002590, symSize: 0xF40 }
  - { offsetInCU: 0x477A1, offset: 0x477A1, size: 0x8, addend: 0x0, symName: __Z20knapsack_distributedRKNSt3__16vectorI4ItemNS_9allocatorIS1_EEEEi, symObjAddr: 0x1F30, symBinAddr: 0x1000034D0, symSize: 0x790 }
  - { offsetInCU: 0x485C0, offset: 0x485C0, size: 0x8, addend: 0x0, symName: __ZNKSt3__16vectorIiNS_9allocatorIiEEE20__throw_length_errorB7v160006Ev, symObjAddr: 0x1A0D0, symBinAddr: 0x10001B670, symSize: 0x10 }
  - { offsetInCU: 0x485EA, offset: 0x485EA, size: 0x8, addend: 0x0, symName: __ZNSt3__115allocate_sharedB7v160006IN7cxxopts6values14standard_valueIiEENS_9allocatorIS4_EEJEvEENS_10shared_ptrIT_EERKT0_DpOT1_, symObjAddr: 0x1A0E0, symBinAddr: 0x10001B680, symSize: 0x120 }
  - { offsetInCU: 0x49CA0, offset: 0x49CA0, size: 0x8, addend: 0x0, symName: _main, symObjAddr: 0x26C0, symBinAddr: 0x100003C60, symSize: 0x1620 }
  - { offsetInCU: 0x50A8B, offset: 0x50A8B, size: 0x8, addend: 0x0, symName: __ZN7cxxopts11OptionAdderclERKNSt3__112basic_stringIcNS1_11char_traitsIcEENS1_9allocatorIcEEEES9_NS1_10shared_ptrIKNS_5ValueEEES7_, symObjAddr: 0x3CE0, symBinAddr: 0x100005280, symSize: 0x3F0 }
  - { offsetInCU: 0x51C3F, offset: 0x51C3F, size: 0x8, addend: 0x0, symName: __ZN7cxxopts7Options5parseERiRPPc, symObjAddr: 0x4150, symBinAddr: 0x1000056F0, symSize: 0x110 }
  - { offsetInCU: 0x52125, offset: 0x52125, size: 0x8, addend: 0x0, symName: __ZNSt3__112__hash_tableINS_17__hash_value_typeINS_12basic_stringIcNS_11char_traitsIcEENS_9allocatorIcEEEENS_10shared_ptrIN7cxxopts13OptionDetailsEEEEENS_22__unordered_map_hasherIS7_SC_NS_4hashIS7_EENS_8equal_toIS7_EELb1EEENS_21__unordered_map_equalIS7_SC_SH_SF_Lb1EEENS5_ISC_EEE4findIS7_EENS_15__hash_iteratorIPNS_11__hash_nodeISC_PvEEEERKT_, symObjAddr: 0xD2D0, symBinAddr: 0x10000E870, symSize: 0x300 }
  - { offsetInCU: 0x523F0, offset: 0x523F0, size: 0x8, addend: 0x0, symName: __ZNKSt3__112__hash_tableINS_17__hash_value_typeINS_10shared_ptrIN7cxxopts13OptionDetailsEEENS3_11OptionValueEEENS_22__unordered_map_hasherIS5_S7_NS_4hashIS5_EENS_8equal_toIS5_EELb1EEENS_21__unordered_map_equalIS5_S7_SC_SA_Lb1EEENS_9allocatorIS7_EEE4findIS5_EENS_21__hash_const_iteratorIPNS_11__hash_nodeIS7_PvEEEERKT_, symObjAddr: 0xEAD0, symBinAddr: 0x100010070, symSize: 0x180 }
  - { offsetInCU: 0x5258D, offset: 0x5258D, size: 0x8, addend: 0x0, symName: __ZNK7cxxopts11OptionValue2asIiEERKT_v, symObjAddr: 0x4660, symBinAddr: 0x100005C00, symSize: 0xD0 }
  - { offsetInCU: 0x52963, offset: 0x52963, size: 0x8, addend: 0x0, symName: __ZNK7cxxopts11OptionValue2asIbEERKT_v, symObjAddr: 0x4730, symBinAddr: 0x100005CD0, symSize: 0xD0 }
  - { offsetInCU: 0x52D5F, offset: 0x52D5F, size: 0x8, addend: 0x0, symName: __ZN7cxxopts11ParseResultD2Ev, symObjAddr: 0x10F80, symBinAddr: 0x100012520, symSize: 0x170 }
  - { offsetInCU: 0x538CE, offset: 0x538CE, size: 0x8, addend: 0x0, symName: __ZN7cxxopts7OptionsD2Ev, symObjAddr: 0x110F0, symBinAddr: 0x100012690, symSize: 0x160 }
  - { offsetInCU: 0x54497, offset: 0x54497, size: 0x8, addend: 0x0, symName: __ZNKSt3__16vectorI4ItemNS_9allocatorIS1_EEE20__throw_length_errorB7v160006Ev, symObjAddr: 0x1A0C0, symBinAddr: 0x10001B660, symSize: 0x10 }
  - { offsetInCU: 0x544C1, offset: 0x544C1, size: 0x8, addend: 0x0, symName: __ZNKSt3__16vectorIiNS_9allocatorIiEEE20__throw_length_errorB7v160006Ev, symObjAddr: 0x1A0D0, symBinAddr: 0x10001B670, symSize: 0x10 }
  - { offsetInCU: 0x544CC, offset: 0x544CC, size: 0x8, addend: 0x0, symName: __ZNK7cxxopts7Options4helpERKNSt3__16vectorINS1_12basic_stringIcNS1_11char_traitsIcEENS1_9allocatorIcEEEENS6_IS8_EEEE, symObjAddr: 0x4290, symBinAddr: 0x100005830, symSize: 0x360 }
  - { offsetInCU: 0x5585A, offset: 0x5585A, size: 0x8, addend: 0x0, symName: __ZNSt3__16vectorINS_12basic_stringIcNS_11char_traitsIcEENS_9allocatorIcEEEENS4_IS6_EEED1B7v160006Ev, symObjAddr: 0x45F0, symBinAddr: 0x100005B90, symSize: 0x70 }
  - { offsetInCU: 0x55AF8, offset: 0x55AF8, size: 0x8, addend: 0x0, symName: __ZN7cxxopts28option_not_present_exceptionC2ERKNSt3__112basic_stringIcNS1_11char_traitsIcEENS1_9allocatorIcEEEE, symObjAddr: 0x10D20, symBinAddr: 0x1000122C0, symSize: 0x220 }
  - { offsetInCU: 0x566A5, offset: 0x566A5, size: 0x8, addend: 0x0, symName: __ZNSt3__110shared_ptrIKN7cxxopts5ValueEED1B7v160006Ev, symObjAddr: 0x40D0, symBinAddr: 0x100005670, symSize: 0x40 }
  - { offsetInCU: 0x5673D, offset: 0x5673D, size: 0x8, addend: 0x0, symName: __ZNSt3__110shared_ptrIN7cxxopts5ValueEED1B7v160006Ev, symObjAddr: 0x4110, symBinAddr: 0x1000056B0, symSize: 0x40 }
  - { offsetInCU: 0x56CFC, offset: 0x56CFC, size: 0x8, addend: 0x0, symName: __ZNKSt3__111basic_regexIcNS_12regex_traitsIcEEE8__searchINS_9allocatorINS_9sub_matchIPKcEEEEEEbS8_S8_RNS_13match_resultsIS8_T_EENS_15regex_constants15match_flag_typeE, symObjAddr: 0x5810, symBinAddr: 0x100006DB0, symSize: 0x2D0 }
  - { offsetInCU: 0x57166, offset: 0x57166, size: 0x8, addend: 0x0, symName: __ZZN7cxxopts11OptionAdderclERKNSt3__112basic_stringIcNS1_11char_traitsIcEENS1_9allocatorIcEEEES9_NS1_10shared_ptrIKNS_5ValueEEES7_ENKUlRKNS1_9sub_matchIPKcEESJ_E_clESJ_SJ_, symObjAddr: 0x4A20, symBinAddr: 0x100005FC0, symSize: 0x720 }
  - { offsetInCU: 0x57F9F, offset: 0x57F9F, size: 0x8, addend: 0x0, symName: __ZN7cxxopts7Options10add_optionERKNSt3__112basic_stringIcNS1_11char_traitsIcEENS1_9allocatorIcEEEES9_S9_S7_NS1_10shared_ptrIKNS_5ValueEEES7_, symObjAddr: 0x5140, symBinAddr: 0x1000066E0, symSize: 0x690 }
  - { offsetInCU: 0x59C83, offset: 0x59C83, size: 0x8, addend: 0x0, symName: __ZN7cxxopts27invalid_option_format_errorC2ERKNSt3__112basic_stringIcNS1_11char_traitsIcEENS1_9allocatorIcEEEE, symObjAddr: 0x9460, symBinAddr: 0x10000AA00, symSize: 0x1B0 }
  - { offsetInCU: 0x5A57E, offset: 0x5A57E, size: 0x8, addend: 0x0, symName: __ZNSt3__15tupleIJNS_12basic_stringIcNS_11char_traitsIcEENS_9allocatorIcEEEES6_EED1Ev, symObjAddr: 0x57D0, symBinAddr: 0x100006D70, symSize: 0x40 }
  - { offsetInCU: 0x5AA28, offset: 0x5AA28, size: 0x8, addend: 0x0, symName: __ZNSt3__16vectorINS_12basic_stringIcNS_11char_traitsIcEENS_9allocatorIcEEEENS4_IS6_EEEC2ERKS8_, symObjAddr: 0xB360, symBinAddr: 0x10000C900, symSize: 0x130 }
  - { offsetInCU: 0x5AD6E, offset: 0x5AD6E, size: 0x8, addend: 0x0, symName: __ZN7cxxopts11ParseResultC1ENSt3__110shared_ptrINS1_13unordered_mapINS1_12basic_stringIcNS1_11char_traitsIcEENS1_9allocatorIcEEEENS2_INS_13OptionDetailsEEENS1_4hashIS9_EENS1_8equal_toIS9_EENS7_INS1_4pairIKS9_SB_EEEEEEEENS1_6vectorIS9_NS7_IS9_EEEEbRiRPPc, symObjAddr: 0xB1A0, symBinAddr: 0x10000C740, symSize: 0x1C0 }
  - { offsetInCU: 0x5B9FF, offset: 0x5B9FF, size: 0x8, addend: 0x0, symName: __ZNSt3__110shared_ptrINS_13unordered_mapINS_12basic_stringIcNS_11char_traitsIcEENS_9allocatorIcEEEENS0_IN7cxxopts13OptionDetailsEEENS_4hashIS7_EENS_8equal_toIS7_EENS5_INS_4pairIKS7_SA_EEEEEEED1B7v160006Ev, symObjAddr: 0x49E0, symBinAddr: 0x100005F80, symSize: 0x40 }
  - { offsetInCU: 0x5BCE5, offset: 0x5BCE5, size: 0x8, addend: 0x0, symName: __ZNK7cxxopts7Options19generate_group_helpERNSt3__112basic_stringIcNS1_11char_traitsIcEENS1_9allocatorIcEEEERKNS1_6vectorIS7_NS5_IS7_EEEE, symObjAddr: 0xEDA0, symBinAddr: 0x100010340, symSize: 0x120 }
  - { offsetInCU: 0x5C10D, offset: 0x5C10D, size: 0x8, addend: 0x0, symName: __ZNK7cxxopts7Options24generate_all_groups_helpERNSt3__112basic_stringIcNS1_11char_traitsIcEENS1_9allocatorIcEEEE, symObjAddr: 0xEC50, symBinAddr: 0x1000101F0, symSize: 0x150 }
  - { offsetInCU: 0x5C77B, offset: 0x5C77B, size: 0x8, addend: 0x0, symName: __ZNKSt3__112basic_stringIcNS_11char_traitsIcEENS_9allocatorIcEEE20__throw_length_errorB7v160006Ev, symObjAddr: 0x9770, symBinAddr: 0x10000AD10, symSize: 0x10 }
  - { offsetInCU: 0x5C7A5, offset: 0x5C7A5, size: 0x8, addend: 0x0, symName: __ZNSt3__120__shared_ptr_emplaceIN7cxxopts13OptionDetailsENS_9allocatorIS2_EEEC2B7v160006IJRKNS_12basic_stringIcNS_11char_traitsIcEENS3_IcEEEESD_RSB_RNS_10shared_ptrIKNS1_5ValueEEEEEES4_DpOT_, symObjAddr: 0x9780, symBinAddr: 0x10000AD20, symSize: 0x130 }
  - { offsetInCU: 0x5C8B3, offset: 0x5C8B3, size: 0x8, addend: 0x0, symName: __ZNSt3__110shared_ptrINS_13__empty_stateIcEEED1B7v160006Ev, symObjAddr: 0x4800, symBinAddr: 0x100005DA0, symSize: 0x40 }
  - { offsetInCU: 0x5C968, offset: 0x5C968, size: 0x8, addend: 0x0, symName: __ZNSt3__120__shared_ptr_emplaceINS_13unordered_mapINS_12basic_stringIcNS_11char_traitsIcEENS_9allocatorIcEEEENS_10shared_ptrIN7cxxopts13OptionDetailsEEENS_4hashIS7_EENS_8equal_toIS7_EENS5_INS_4pairIKS7_SB_EEEEEENS5_ISK_EEED1Ev, symObjAddr: 0x4890, symBinAddr: 0x100005E30, symSize: 0x20 }
  - { offsetInCU: 0x5C9C2, offset: 0x5C9C2, size: 0x8, addend: 0x0, symName: __ZNSt3__120__shared_ptr_emplaceINS_13unordered_mapINS_12basic_stringIcNS_11char_traitsIcEENS_9allocatorIcEEEENS_10shared_ptrIN7cxxopts13OptionDetailsEEENS_4hashIS7_EENS_8equal_toIS7_EENS5_INS_4pairIKS7_SB_EEEEEENS5_ISK_EEED0Ev, symObjAddr: 0x48B0, symBinAddr: 0x100005E50, symSize: 0x30 }
  - { offsetInCU: 0x5CCC4, offset: 0x5CCC4, size: 0x8, addend: 0x0, symName: __ZNSt3__120__shared_ptr_emplaceINS_13unordered_mapINS_12basic_stringIcNS_11char_traitsIcEENS_9allocatorIcEEEENS_10shared_ptrIN7cxxopts13OptionDetailsEEENS_4hashIS7_EENS_8equal_toIS7_EENS5_INS_4pairIKS7_SB_EEEEEENS5_ISK_EEE16__on_zero_sharedEv, symObjAddr: 0x48E0, symBinAddr: 0x100005E80, symSize: 0xB0 }
  - { offsetInCU: 0x5D212, offset: 0x5D212, size: 0x8, addend: 0x0, symName: __ZNSt3__120__shared_ptr_emplaceINS_13unordered_mapINS_12basic_stringIcNS_11char_traitsIcEENS_9allocatorIcEEEENS_10shared_ptrIN7cxxopts13OptionDetailsEEENS_4hashIS7_EENS_8equal_toIS7_EENS5_INS_4pairIKS7_SB_EEEEEENS5_ISK_EEE21__on_zero_shared_weakEv, symObjAddr: 0x4990, symBinAddr: 0x100005F30, symSize: 0x10 }
  - { offsetInCU: 0x5D305, offset: 0x5D305, size: 0x8, addend: 0x0, symName: __ZNSt3__110shared_ptrIN7cxxopts13OptionDetailsEED1B7v160006Ev, symObjAddr: 0x49A0, symBinAddr: 0x100005F40, symSize: 0x40 }
  - { offsetInCU: 0x5DC5A, offset: 0x5DC5A, size: 0x8, addend: 0x0, symName: __ZNSt3__120__shared_ptr_emplaceIN7cxxopts13OptionDetailsENS_9allocatorIS2_EEEC2B7v160006IJRKNS_12basic_stringIcNS_11char_traitsIcEENS3_IcEEEESD_RSB_RNS_10shared_ptrIKNS1_5ValueEEEEEES4_DpOT_, symObjAddr: 0x9780, symBinAddr: 0x10000AD20, symSize: 0x130 }
  - { offsetInCU: 0x5E20B, offset: 0x5E20B, size: 0x8, addend: 0x0, symName: __ZNSt3__112__hash_tableINS_17__hash_value_typeINS_12basic_stringIcNS_11char_traitsIcEENS_9allocatorIcEEEENS_10shared_ptrIN7cxxopts13OptionDetailsEEEEENS_22__unordered_map_hasherIS7_SC_NS_4hashIS7_EENS_8equal_toIS7_EELb1EEENS_21__unordered_map_equalIS7_SC_SH_SF_Lb1EEENS5_ISC_EEE25__emplace_unique_key_argsIS7_JRKS7_RSB_EEENS_4pairINS_15__hash_iteratorIPNS_11__hash_nodeISC_PvEEEEbEERKT_DpOT0_, symObjAddr: 0x9990, symBinAddr: 0x10000AF30, symSize: 0x660 }
  - { offsetInCU: 0x5EA90, offset: 0x5EA90, size: 0x8, addend: 0x0, symName: __ZNSt3__16__treeINS_12__value_typeINS_12basic_stringIcNS_11char_traitsIcEENS_9allocatorIcEEEEN7cxxopts16HelpGroupDetailsEEENS_19__map_value_compareIS7_SA_NS_4lessIS7_EELb1EEENS5_ISA_EEE25__emplace_unique_key_argsIS7_JRKNS_21piecewise_construct_tENS_5tupleIJRKS7_EEENSL_IJEEEEEENS_4pairINS_15__tree_iteratorISA_PNS_11__tree_nodeISA_PvEElEEbEERKT_DpOT0_, symObjAddr: 0xA9C0, symBinAddr: 0x10000BF60, symSize: 0xC0 }
  - { offsetInCU: 0x5EF09, offset: 0x5EF09, size: 0x8, addend: 0x0, symName: __ZNSt3__16vectorIN7cxxopts17HelpOptionDetailsENS_9allocatorIS2_EEE24__emplace_back_slow_pathIJS2_EEEvDpOT_, symObjAddr: 0xADC0, symBinAddr: 0x10000C360, symSize: 0x330 }
  - { offsetInCU: 0x5FA17, offset: 0x5FA17, size: 0x8, addend: 0x0, symName: __ZN7cxxopts19option_exists_errorC2ERKNSt3__112basic_stringIcNS1_11char_traitsIcEENS1_9allocatorIcEEEE, symObjAddr: 0xA760, symBinAddr: 0x10000BD00, symSize: 0x220 }
  - { offsetInCU: 0x605C4, offset: 0x605C4, size: 0x8, addend: 0x0, symName: __ZN7cxxopts17HelpOptionDetailsD2Ev, symObjAddr: 0xB100, symBinAddr: 0x10000C6A0, symSize: 0xA0 }
  - { offsetInCU: 0x60CB6, offset: 0x60CB6, size: 0x8, addend: 0x0, symName: __ZNSt3__16vectorINS_9sub_matchIPKcEENS_9allocatorIS4_EEE6assignEmRKS4_, symObjAddr: 0x5AE0, symBinAddr: 0x100007080, symSize: 0x230 }
  - { offsetInCU: 0x612EB, offset: 0x612EB, size: 0x8, addend: 0x0, symName: __ZNKSt3__111basic_regexIcNS_12regex_traitsIcEEE27__match_at_start_posix_subsINS_9allocatorINS_9sub_matchIPKcEEEEEEbS8_S8_RNS_13match_resultsIS8_T_EENS_15regex_constants15match_flag_typeEb, symObjAddr: 0x6C80, symBinAddr: 0x100008220, symSize: 0x6C0 }
  - { offsetInCU: 0x63114, offset: 0x63114, size: 0x8, addend: 0x0, symName: __ZNKSt3__111basic_regexIcNS_12regex_traitsIcEEE21__match_at_start_ecmaINS_9allocatorINS_9sub_matchIPKcEEEEEEbS8_S8_RNS_13match_resultsIS8_T_EENS_15regex_constants15match_flag_typeEb, symObjAddr: 0x5D10, symBinAddr: 0x1000072B0, symSize: 0x4E0 }
  - { offsetInCU: 0x641ED, offset: 0x641ED, size: 0x8, addend: 0x0, symName: __ZNKSt3__111basic_regexIcNS_12regex_traitsIcEEE29__match_at_start_posix_nosubsINS_9allocatorINS_9sub_matchIPKcEEEEEEbS8_S8_RNS_13match_resultsIS8_T_EENS_15regex_constants15match_flag_typeEb, symObjAddr: 0x61F0, symBinAddr: 0x100007790, symSize: 0xA90 }
  - { offsetInCU: 0x662A8, offset: 0x662A8, size: 0x8, addend: 0x0, symName: __ZNKSt3__16vectorINS_9sub_matchIPKcEENS_9allocatorIS4_EEE20__throw_length_errorB7v160006Ev, symObjAddr: 0x7920, symBinAddr: 0x100008EC0, symSize: 0x10 }
  - { offsetInCU: 0x662D2, offset: 0x662D2, size: 0x8, addend: 0x0, symName: __ZNSt3__16vectorINS_4pairImPKcEENS_9allocatorIS4_EEE8__appendEm, symObjAddr: 0x7930, symBinAddr: 0x100008ED0, symSize: 0x150 }
  - { offsetInCU: 0x66966, offset: 0x66966, size: 0x8, addend: 0x0, symName: __ZNSt3__16vectorINS_7__stateIcEENS_9allocatorIS2_EEE21__push_back_slow_pathIS2_EEvOT_, symObjAddr: 0x74A0, symBinAddr: 0x100008A40, symSize: 0x230 }
  - { offsetInCU: 0x6730E, offset: 0x6730E, size: 0x8, addend: 0x0, symName: __ZNKSt3__16vectorINS_7__stateIcEENS_9allocatorIS2_EEE20__throw_length_errorB7v160006Ev, symObjAddr: 0x76D0, symBinAddr: 0x100008C70, symSize: 0x10 }
  - { offsetInCU: 0x67322, offset: 0x67322, size: 0x8, addend: 0x0, symName: __ZNSt3__16vectorINS_9sub_matchIPKcEENS_9allocatorIS4_EEE8__appendEmRKS4_, symObjAddr: 0x7760, symBinAddr: 0x100008D00, symSize: 0x1C0 }
  - { offsetInCU: 0x678D5, offset: 0x678D5, size: 0x8, addend: 0x0, symName: __ZNSt3__16vectorINS_4pairImPKcEENS_9allocatorIS4_EEE8__appendEm, symObjAddr: 0x7930, symBinAddr: 0x100008ED0, symSize: 0x150 }
  - { offsetInCU: 0x67E4B, offset: 0x67E4B, size: 0x8, addend: 0x0, symName: __ZNSt3__17__stateIcEC2ERKS1_, symObjAddr: 0x7A90, symBinAddr: 0x100009030, symSize: 0x1A0 }
  - { offsetInCU: 0x68449, offset: 0x68449, size: 0x8, addend: 0x0, symName: __ZNSt3__17__stateIcED1Ev, symObjAddr: 0x7340, symBinAddr: 0x1000088E0, symSize: 0x40 }
  - { offsetInCU: 0x68708, offset: 0x68708, size: 0x8, addend: 0x0, symName: __ZNSt3__16vectorINS_7__stateIcEENS_9allocatorIS2_EEED1B7v160006Ev, symObjAddr: 0x7420, symBinAddr: 0x1000089C0, symSize: 0x80 }
  - { offsetInCU: 0x68FC1, offset: 0x68FC1, size: 0x8, addend: 0x0, symName: __ZNSt3__15dequeINS_7__stateIcEENS_9allocatorIS2_EEE19__add_back_capacityEv, symObjAddr: 0x7E00, symBinAddr: 0x1000093A0, symSize: 0x840 }
  - { offsetInCU: 0x6A5CE, offset: 0x6A5CE, size: 0x8, addend: 0x0, symName: __ZNSt3__15dequeINS_7__stateIcEENS_9allocatorIS2_EEE20__add_front_capacityEv, symObjAddr: 0x8A70, symBinAddr: 0x10000A010, symSize: 0x440 }
  - { offsetInCU: 0x6B3BF, offset: 0x6B3BF, size: 0x8, addend: 0x0, symName: __ZNSt3__15dequeINS_7__stateIcEENS_9allocatorIS2_EEED1B7v160006Ev, symObjAddr: 0x7D90, symBinAddr: 0x100009330, symSize: 0x70 }
  - { offsetInCU: 0x6B75C, offset: 0x6B75C, size: 0x8, addend: 0x0, symName: __ZNSt3__16vectorINS_9sub_matchIPKcEENS_9allocatorIS4_EEE6assignIPS4_Li0EEEvT_SA_, symObjAddr: 0x90D0, symBinAddr: 0x10000A670, symSize: 0x1D0 }
  - { offsetInCU: 0x6BE61, offset: 0x6BE61, size: 0x8, addend: 0x0, symName: __ZNSt3__16vectorINS_4pairImPKcEENS_9allocatorIS4_EEE6assignIPS4_Li0EEEvT_SA_, symObjAddr: 0x92A0, symBinAddr: 0x10000A840, symSize: 0x180 }
  - { offsetInCU: 0x6C731, offset: 0x6C731, size: 0x8, addend: 0x0, symName: __ZNKSt3__16vectorINS_7__stateIcEENS_9allocatorIS2_EEE20__throw_length_errorB7v160006Ev, symObjAddr: 0x76D0, symBinAddr: 0x100008C70, symSize: 0x10 }
  - { offsetInCU: 0x6C75B, offset: 0x6C75B, size: 0x8, addend: 0x0, symName: __ZNSt3__120__throw_length_errorB7v160006EPKc, symObjAddr: 0x76E0, symBinAddr: 0x100008C80, symSize: 0x50 }
  - { offsetInCU: 0x6C766, offset: 0x6C766, size: 0x8, addend: 0x0, symName: __ZNSt12length_errorC1B7v160006EPKc, symObjAddr: 0x7730, symBinAddr: 0x100008CD0, symSize: 0x30 }
  - { offsetInCU: 0x6CE2F, offset: 0x6CE2F, size: 0x8, addend: 0x0, symName: __ZNKSt3__16vectorINS_4pairImPKcEENS_9allocatorIS4_EEE20__throw_length_errorB7v160006Ev, symObjAddr: 0x7A80, symBinAddr: 0x100009020, symSize: 0x10 }
  - { offsetInCU: 0x6CE59, offset: 0x6CE59, size: 0x8, addend: 0x0, symName: __ZNSt3__17__stateIcEC2ERKS1_, symObjAddr: 0x7A90, symBinAddr: 0x100009030, symSize: 0x1A0 }
  - { offsetInCU: 0x6D168, offset: 0x6D168, size: 0x8, addend: 0x0, symName: __ZNSt3__15dequeINS_7__stateIcEENS_9allocatorIS2_EEE5clearEv, symObjAddr: 0x7C30, symBinAddr: 0x1000091D0, symSize: 0x160 }
  - { offsetInCU: 0x6DC43, offset: 0x6DC43, size: 0x8, addend: 0x0, symName: __ZNSt3__114__split_bufferIPNS_7__stateIcEENS_9allocatorIS3_EEE9push_backEOS3_, symObjAddr: 0x8640, symBinAddr: 0x100009BE0, symSize: 0x210 }
  - { offsetInCU: 0x6E0A6, offset: 0x6E0A6, size: 0x8, addend: 0x0, symName: __ZNSt3__114__split_bufferIPNS_7__stateIcEENS_9allocatorIS3_EEE10push_frontEOS3_, symObjAddr: 0x8850, symBinAddr: 0x100009DF0, symSize: 0x220 }
  - { offsetInCU: 0x6E594, offset: 0x6E594, size: 0x8, addend: 0x0, symName: __ZNSt3__114__split_bufferIPNS_7__stateIcEENS_9allocatorIS3_EEE10push_frontERKS3_, symObjAddr: 0x8EB0, symBinAddr: 0x10000A450, symSize: 0x220 }
  - { offsetInCU: 0x6EBB7, offset: 0x6EBB7, size: 0x8, addend: 0x0, symName: __ZN7cxxopts27invalid_option_format_errorD1Ev, symObjAddr: 0x9420, symBinAddr: 0x10000A9C0, symSize: 0x40 }
  - { offsetInCU: 0x6EDB1, offset: 0x6EDB1, size: 0x8, addend: 0x0, symName: __ZN7cxxopts27invalid_option_format_errorD0Ev, symObjAddr: 0x9610, symBinAddr: 0x10000ABB0, symSize: 0x40 }
  - { offsetInCU: 0x6EF99, offset: 0x6EF99, size: 0x8, addend: 0x0, symName: __ZNK7cxxopts15OptionException4whatEv, symObjAddr: 0x9650, symBinAddr: 0x10000ABF0, symSize: 0x20 }
  - { offsetInCU: 0x6F04C, offset: 0x6F04C, size: 0x8, addend: 0x0, symName: __ZN7cxxopts19OptionSpecExceptionD1Ev, symObjAddr: 0x9670, symBinAddr: 0x10000AC10, symSize: 0x40 }
  - { offsetInCU: 0x6F1DB, offset: 0x6F1DB, size: 0x8, addend: 0x0, symName: __ZN7cxxopts19OptionSpecExceptionD0Ev, symObjAddr: 0x96B0, symBinAddr: 0x10000AC50, symSize: 0x40 }
  - { offsetInCU: 0x6F378, offset: 0x6F378, size: 0x8, addend: 0x0, symName: __ZN7cxxopts15OptionExceptionD1Ev, symObjAddr: 0x96F0, symBinAddr: 0x10000AC90, symSize: 0x40 }
  - { offsetInCU: 0x6F4E8, offset: 0x6F4E8, size: 0x8, addend: 0x0, symName: __ZN7cxxopts15OptionExceptionD0Ev, symObjAddr: 0x9730, symBinAddr: 0x10000ACD0, symSize: 0x40 }
  - { offsetInCU: 0x6F73C, offset: 0x6F73C, size: 0x8, addend: 0x0, symName: __ZNSt3__120__shared_ptr_emplaceIN7cxxopts13OptionDetailsENS_9allocatorIS2_EEED1Ev, symObjAddr: 0x98B0, symBinAddr: 0x10000AE50, symSize: 0x20 }
  - { offsetInCU: 0x6F796, offset: 0x6F796, size: 0x8, addend: 0x0, symName: __ZNSt3__120__shared_ptr_emplaceIN7cxxopts13OptionDetailsENS_9allocatorIS2_EEED0Ev, symObjAddr: 0x98D0, symBinAddr: 0x10000AE70, symSize: 0x30 }
  - { offsetInCU: 0x6F838, offset: 0x6F838, size: 0x8, addend: 0x0, symName: __ZNSt3__120__shared_ptr_emplaceIN7cxxopts13OptionDetailsENS_9allocatorIS2_EEE16__on_zero_sharedEv, symObjAddr: 0x9900, symBinAddr: 0x10000AEA0, symSize: 0x80 }
  - { offsetInCU: 0x6FC06, offset: 0x6FC06, size: 0x8, addend: 0x0, symName: __ZNSt3__120__shared_ptr_emplaceIN7cxxopts13OptionDetailsENS_9allocatorIS2_EEE21__on_zero_shared_weakEv, symObjAddr: 0x9980, symBinAddr: 0x10000AF20, symSize: 0x10 }
  - { offsetInCU: 0x70265, offset: 0x70265, size: 0x8, addend: 0x0, symName: __ZNSt3__121__murmur2_or_cityhashImLm64EEclEPKvm, symObjAddr: 0xA060, symBinAddr: 0x10000B600, symSize: 0x4B0 }
  - { offsetInCU: 0x70CE0, offset: 0x70CE0, size: 0x8, addend: 0x0, symName: __ZNSt3__112__hash_tableINS_17__hash_value_typeINS_12basic_stringIcNS_11char_traitsIcEENS_9allocatorIcEEEENS_10shared_ptrIN7cxxopts13OptionDetailsEEEEENS_22__unordered_map_hasherIS7_SC_NS_4hashIS7_EENS_8equal_toIS7_EELb1EEENS_21__unordered_map_equalIS7_SC_SH_SF_Lb1EEENS5_ISC_EEE11__do_rehashILb1EEEvm, symObjAddr: 0xA510, symBinAddr: 0x10000BAB0, symSize: 0x210 }
  - { offsetInCU: 0x71150, offset: 0x71150, size: 0x8, addend: 0x0, symName: __ZNSt3__110unique_ptrINS_11__hash_nodeINS_17__hash_value_typeINS_12basic_stringIcNS_11char_traitsIcEENS_9allocatorIcEEEENS_10shared_ptrIN7cxxopts13OptionDetailsEEEEEPvEENS_22__hash_node_destructorINS6_ISF_EEEEED1B7v160006Ev, symObjAddr: 0x9FF0, symBinAddr: 0x10000B590, symSize: 0x70 }
  - { offsetInCU: 0x71805, offset: 0x71805, size: 0x8, addend: 0x0, symName: __ZN7cxxopts19option_exists_errorD1Ev, symObjAddr: 0xA720, symBinAddr: 0x10000BCC0, symSize: 0x40 }
  - { offsetInCU: 0x719B3, offset: 0x719B3, size: 0x8, addend: 0x0, symName: __ZN7cxxopts19option_exists_errorD0Ev, symObjAddr: 0xA980, symBinAddr: 0x10000BF20, symSize: 0x40 }
  - { offsetInCU: 0x71F7C, offset: 0x71F7C, size: 0x8, addend: 0x0, symName: __ZNSt3__16__treeINS_12__value_typeINS_12basic_stringIcNS_11char_traitsIcEENS_9allocatorIcEEEEN7cxxopts16HelpGroupDetailsEEENS_19__map_value_compareIS7_SA_NS_4lessIS7_EELb1EEENS5_ISA_EEE12__find_equalIS7_EERPNS_16__tree_node_baseIPvEERPNS_15__tree_end_nodeISL_EERKT_, symObjAddr: 0xAA80, symBinAddr: 0x10000C020, symSize: 0x140 }
  - { offsetInCU: 0x72556, offset: 0x72556, size: 0x8, addend: 0x0, symName: __ZNSt3__116allocator_traitsINS_9allocatorINS_11__tree_nodeINS_12__value_typeINS_12basic_stringIcNS_11char_traitsIcEENS1_IcEEEEN7cxxopts16HelpGroupDetailsEEEPvEEEEE7destroyB7v160006INS_4pairIKS8_SA_EEvvEEvRSE_PT_, symObjAddr: 0xAD20, symBinAddr: 0x10000C2C0, symSize: 0xA0 }
  - { offsetInCU: 0x72CDF, offset: 0x72CDF, size: 0x8, addend: 0x0, symName: __ZNKSt3__16vectorIN7cxxopts17HelpOptionDetailsENS_9allocatorIS2_EEE20__throw_length_errorB7v160006Ev, symObjAddr: 0xB0F0, symBinAddr: 0x10000C690, symSize: 0x10 }
  - { offsetInCU: 0x72D09, offset: 0x72D09, size: 0x8, addend: 0x0, symName: __ZN7cxxopts17HelpOptionDetailsD2Ev, symObjAddr: 0xB100, symBinAddr: 0x10000C6A0, symSize: 0xA0 }
  - { offsetInCU: 0x73328, offset: 0x73328, size: 0x8, addend: 0x0, symName: __ZN7cxxopts11ParseResult5parseERiRPPc, symObjAddr: 0xB570, symBinAddr: 0x10000CB10, symSize: 0x1410 }
  - { offsetInCU: 0x76E0F, offset: 0x76E0F, size: 0x8, addend: 0x0, symName: __ZN7cxxopts11ParseResultC1ENSt3__110shared_ptrINS1_13unordered_mapINS1_12basic_stringIcNS1_11char_traitsIcEENS1_9allocatorIcEEEENS2_INS_13OptionDetailsEEENS1_4hashIS9_EENS1_8equal_toIS9_EENS7_INS1_4pairIKS9_SB_EEEEEEEENS1_6vectorIS9_NS7_IS9_EEEEbRiRPPc.cold.1, symObjAddr: 0x1BED0, symBinAddr: 0x10001D5A0, symSize: 0x80 }
  - { offsetInCU: 0x7707E, offset: 0x7707E, size: 0x8, addend: 0x0, symName: __ZNSt3__112__hash_tableINS_17__hash_value_typeINS_10shared_ptrIN7cxxopts13OptionDetailsEEENS3_11OptionValueEEENS_22__unordered_map_hasherIS5_S7_NS_4hashIS5_EENS_8equal_toIS5_EELb1EEENS_21__unordered_map_equalIS5_S7_SC_SA_Lb1EEENS_9allocatorIS7_EEED2Ev, symObjAddr: 0xEA00, symBinAddr: 0x10000FFA0, symSize: 0xD0 }
  - { offsetInCU: 0x776B1, offset: 0x776B1, size: 0x8, addend: 0x0, symName: __ZNKSt3__16vectorINS_12basic_stringIcNS_11char_traitsIcEENS_9allocatorIcEEEENS4_IS6_EEE20__throw_length_errorB7v160006Ev, symObjAddr: 0xB510, symBinAddr: 0x10000CAB0, symSize: 0x10 }
  - { offsetInCU: 0x776DB, offset: 0x776DB, size: 0x8, addend: 0x0, symName: __ZNSt3__128__exception_guard_exceptionsINS_29_AllocatorDestroyRangeReverseINS_9allocatorINS_12basic_stringIcNS_11char_traitsIcEENS2_IcEEEEEEPS7_EEED1B7v160006Ev, symObjAddr: 0xB520, symBinAddr: 0x10000CAC0, symSize: 0x50 }
  - { offsetInCU: 0x776E6, offset: 0x776E6, size: 0x8, addend: 0x0, symName: __ZNSt3__128__exception_guard_exceptionsINS_29_AllocatorDestroyRangeReverseINS_9allocatorINS_12basic_stringIcNS_11char_traitsIcEENS2_IcEEEEEEPS7_EEED1B7v160006Ev, symObjAddr: 0xB520, symBinAddr: 0x10000CAC0, symSize: 0x50 }
  - { offsetInCU: 0x77925, offset: 0x77925, size: 0x8, addend: 0x0, symName: __ZNSt3__128__exception_guard_exceptionsINS_6vectorINS_12basic_stringIcNS_11char_traitsIcEENS_9allocatorIcEEEENS5_IS7_EEE16__destroy_vectorEED1B7v160006Ev, symObjAddr: 0xB490, symBinAddr: 0x10000CA30, symSize: 0x80 }
  - { offsetInCU: 0x77F56, offset: 0x77F56, size: 0x8, addend: 0x0, symName: __ZN7cxxopts11ParseResult18consume_positionalENSt3__112basic_stringIcNS1_11char_traitsIcEENS1_9allocatorIcEEEE, symObjAddr: 0xC980, symBinAddr: 0x10000DF20, symSize: 0x120 }
  - { offsetInCU: 0x781FA, offset: 0x781FA, size: 0x8, addend: 0x0, symName: __ZN7cxxopts11ParseResult12parse_optionENSt3__110shared_ptrINS_13OptionDetailsEEERKNS1_12basic_stringIcNS1_11char_traitsIcEENS1_9allocatorIcEEEESC_, symObjAddr: 0xCD80, symBinAddr: 0x10000E320, symSize: 0x150 }
  - { offsetInCU: 0x7879E, offset: 0x7879E, size: 0x8, addend: 0x0, symName: __ZN7cxxopts11ParseResult17checked_parse_argEiPPcRiNSt3__110shared_ptrINS_13OptionDetailsEEERKNS4_12basic_stringIcNS4_11char_traitsIcEENS4_9allocatorIcEEEE, symObjAddr: 0xCAA0, symBinAddr: 0x10000E040, symSize: 0x2E0 }
  - { offsetInCU: 0x797FE, offset: 0x797FE, size: 0x8, addend: 0x0, symName: __ZNSt3__112__hash_tableINS_17__hash_value_typeINS_10shared_ptrIN7cxxopts13OptionDetailsEEENS3_11OptionValueEEENS_22__unordered_map_hasherIS5_S7_NS_4hashIS5_EENS_8equal_toIS5_EELb1EEENS_21__unordered_map_equalIS5_S7_SC_SA_Lb1EEENS_9allocatorIS7_EEE25__emplace_unique_key_argsIS5_JRKNS_21piecewise_construct_tENS_5tupleIJRKS5_EEENSN_IJEEEEEENS_4pairINS_15__hash_iteratorIPNS_11__hash_nodeIS7_PvEEEEbEERKT_DpOT0_, symObjAddr: 0xE1F0, symBinAddr: 0x10000F790, symSize: 0x460 }
  - { offsetInCU: 0x7A0C6, offset: 0x7A0C6, size: 0x8, addend: 0x0, symName: __ZN7cxxopts11OptionValue13parse_defaultENSt3__110shared_ptrIKNS_13OptionDetailsEEE, symObjAddr: 0xE8F0, symBinAddr: 0x10000FE90, symSize: 0x110 }
  - { offsetInCU: 0x7A532, offset: 0x7A532, size: 0x8, addend: 0x0, symName: __ZN7cxxopts27option_not_exists_exceptionC2ERKNSt3__112basic_stringIcNS1_11char_traitsIcEENS1_9allocatorIcEEEE, symObjAddr: 0xD620, symBinAddr: 0x10000EBC0, symSize: 0x220 }
  - { offsetInCU: 0x7B0DF, offset: 0x7B0DF, size: 0x8, addend: 0x0, symName: __ZN7cxxopts34option_requires_argument_exceptionC2ERKNSt3__112basic_stringIcNS1_11char_traitsIcEENS1_9allocatorIcEEEE, symObjAddr: 0xDF90, symBinAddr: 0x10000F530, symSize: 0x220 }
  - { offsetInCU: 0x7BC8C, offset: 0x7BC8C, size: 0x8, addend: 0x0, symName: __ZN7cxxopts23option_syntax_exceptionC2ERKNSt3__112basic_stringIcNS1_11char_traitsIcEENS1_9allocatorIcEEEE, symObjAddr: 0xCF10, symBinAddr: 0x10000E4B0, symSize: 0x220 }
  - { offsetInCU: 0x7C839, offset: 0x7C839, size: 0x8, addend: 0x0, symName: __ZNSt3__110shared_ptrIKN7cxxopts13OptionDetailsEED1B7v160006Ev, symObjAddr: 0xDC40, symBinAddr: 0x10000F1E0, symSize: 0x40 }
  - { offsetInCU: 0x7C925, offset: 0x7C925, size: 0x8, addend: 0x0, symName: __ZN7cxxopts11ParseResult13add_to_optionERKNSt3__112basic_stringIcNS1_11char_traitsIcEENS1_9allocatorIcEEEES9_, symObjAddr: 0xD1F0, symBinAddr: 0x10000E790, symSize: 0xE0 }
  - { offsetInCU: 0x7CBAD, offset: 0x7CBAD, size: 0x8, addend: 0x0, symName: __ZN7cxxopts27option_not_exists_exceptionC1ERKNSt3__112basic_stringIcNS1_11char_traitsIcEENS1_9allocatorIcEEEE, symObjAddr: 0xD5D0, symBinAddr: 0x10000EB70, symSize: 0x10 }
  - { offsetInCU: 0x7CBF7, offset: 0x7CBF7, size: 0x8, addend: 0x0, symName: __ZN7cxxopts26missing_argument_exceptionC1ERKNSt3__112basic_stringIcNS1_11char_traitsIcEENS1_9allocatorIcEEEE, symObjAddr: 0xD880, symBinAddr: 0x10000EE20, symSize: 0x10 }
  - { offsetInCU: 0x7CE4E, offset: 0x7CE4E, size: 0x8, addend: 0x0, symName: __ZN7cxxopts11OptionValue5parseENSt3__110shared_ptrIKNS_13OptionDetailsEEERKNS1_12basic_stringIcNS1_11char_traitsIcEENS1_9allocatorIcEEEE, symObjAddr: 0xDB30, symBinAddr: 0x10000F0D0, symSize: 0x110 }
  - { offsetInCU: 0x7D2D1, offset: 0x7D2D1, size: 0x8, addend: 0x0, symName: __ZNSt3__16vectorIN7cxxopts8KeyValueENS_9allocatorIS2_EEE24__emplace_back_slow_pathIJRKNS_12basic_stringIcNS_11char_traitsIcEENS3_IcEEEESD_EEEvDpOT_, symObjAddr: 0xDC80, symBinAddr: 0x10000F220, symSize: 0x240 }
  - { offsetInCU: 0x7DE13, offset: 0x7DE13, size: 0x8, addend: 0x0, symName: __ZN7cxxopts23option_syntax_exceptionD1Ev, symObjAddr: 0xCED0, symBinAddr: 0x10000E470, symSize: 0x40 }
  - { offsetInCU: 0x7DFE7, offset: 0x7DFE7, size: 0x8, addend: 0x0, symName: __ZN7cxxopts23option_syntax_exceptionD0Ev, symObjAddr: 0xD130, symBinAddr: 0x10000E6D0, symSize: 0x40 }
  - { offsetInCU: 0x7E1A3, offset: 0x7E1A3, size: 0x8, addend: 0x0, symName: __ZN7cxxopts20OptionParseExceptionD1Ev, symObjAddr: 0xD170, symBinAddr: 0x10000E710, symSize: 0x40 }
  - { offsetInCU: 0x7E332, offset: 0x7E332, size: 0x8, addend: 0x0, symName: __ZN7cxxopts20OptionParseExceptionD0Ev, symObjAddr: 0xD1B0, symBinAddr: 0x10000E750, symSize: 0x40 }
  - { offsetInCU: 0x7E4EC, offset: 0x7E4EC, size: 0x8, addend: 0x0, symName: __ZN7cxxopts27option_not_exists_exceptionD1Ev, symObjAddr: 0xD5E0, symBinAddr: 0x10000EB80, symSize: 0x40 }
  - { offsetInCU: 0x7E69A, offset: 0x7E69A, size: 0x8, addend: 0x0, symName: __ZN7cxxopts27option_not_exists_exceptionD0Ev, symObjAddr: 0xD840, symBinAddr: 0x10000EDE0, symSize: 0x40 }
  - { offsetInCU: 0x7E856, offset: 0x7E856, size: 0x8, addend: 0x0, symName: __ZN7cxxopts26missing_argument_exceptionC2ERKNSt3__112basic_stringIcNS1_11char_traitsIcEENS1_9allocatorIcEEEE, symObjAddr: 0xD8D0, symBinAddr: 0x10000EE70, symSize: 0x220 }
  - { offsetInCU: 0x7F426, offset: 0x7F426, size: 0x8, addend: 0x0, symName: __ZN7cxxopts26missing_argument_exceptionD1Ev, symObjAddr: 0xD890, symBinAddr: 0x10000EE30, symSize: 0x40 }
  - { offsetInCU: 0x7F5D4, offset: 0x7F5D4, size: 0x8, addend: 0x0, symName: __ZN7cxxopts26missing_argument_exceptionD0Ev, symObjAddr: 0xDAF0, symBinAddr: 0x10000F090, symSize: 0x40 }
  - { offsetInCU: 0x7FD6B, offset: 0x7FD6B, size: 0x8, addend: 0x0, symName: __ZNKSt3__16vectorIN7cxxopts8KeyValueENS_9allocatorIS2_EEE20__throw_length_errorB7v160006Ev, symObjAddr: 0xDF40, symBinAddr: 0x10000F4E0, symSize: 0x10 }
  - { offsetInCU: 0x7FD95, offset: 0x7FD95, size: 0x8, addend: 0x0, symName: __ZN7cxxopts34option_requires_argument_exceptionD1Ev, symObjAddr: 0xDF50, symBinAddr: 0x10000F4F0, symSize: 0x40 }
  - { offsetInCU: 0x7FDA0, offset: 0x7FDA0, size: 0x8, addend: 0x0, symName: __ZNSt3__114__split_bufferIN7cxxopts8KeyValueERNS_9allocatorIS2_EEED1Ev, symObjAddr: 0xDEC0, symBinAddr: 0x10000F460, symSize: 0x80 }
  - { offsetInCU: 0x801B4, offset: 0x801B4, size: 0x8, addend: 0x0, symName: __ZN7cxxopts34option_requires_argument_exceptionD1Ev, symObjAddr: 0xDF50, symBinAddr: 0x10000F4F0, symSize: 0x40 }
  - { offsetInCU: 0x80362, offset: 0x80362, size: 0x8, addend: 0x0, symName: __ZN7cxxopts34option_requires_argument_exceptionD0Ev, symObjAddr: 0xE1B0, symBinAddr: 0x10000F750, symSize: 0x40 }
  - { offsetInCU: 0x80C48, offset: 0x80C48, size: 0x8, addend: 0x0, symName: __ZNSt3__112__hash_tableINS_17__hash_value_typeINS_10shared_ptrIN7cxxopts13OptionDetailsEEENS3_11OptionValueEEENS_22__unordered_map_hasherIS5_S7_NS_4hashIS5_EENS_8equal_toIS5_EELb1EEENS_21__unordered_map_equalIS5_S7_SC_SA_Lb1EEENS_9allocatorIS7_EEE11__do_rehashILb1EEEvm, symObjAddr: 0xE6E0, symBinAddr: 0x10000FC80, symSize: 0x210 }
  - { offsetInCU: 0x810B8, offset: 0x810B8, size: 0x8, addend: 0x0, symName: __ZNSt3__110unique_ptrINS_11__hash_nodeINS_17__hash_value_typeINS_10shared_ptrIN7cxxopts13OptionDetailsEEENS4_11OptionValueEEEPvEENS_22__hash_node_destructorINS_9allocatorISA_EEEEED1B7v160006Ev, symObjAddr: 0xE650, symBinAddr: 0x10000FBF0, symSize: 0x90 }
  - { offsetInCU: 0x818E6, offset: 0x818E6, size: 0x8, addend: 0x0, symName: __ZNSt3__16vectorINS_12basic_stringIcNS_11char_traitsIcEENS_9allocatorIcEEEENS4_IS6_EEE7reserveEm, symObjAddr: 0xEEC0, symBinAddr: 0x100010460, symSize: 0x160 }
  - { offsetInCU: 0x81E9D, offset: 0x81E9D, size: 0x8, addend: 0x0, symName: __ZNSt3__16vectorINS_12basic_stringIcNS_11char_traitsIcEENS_9allocatorIcEEEENS4_IS6_EEE21__push_back_slow_pathIRKS6_EEvOT_, symObjAddr: 0xF080, symBinAddr: 0x100010620, symSize: 0x1A0 }
  - { offsetInCU: 0x825ED, offset: 0x825ED, size: 0x8, addend: 0x0, symName: __ZNK7cxxopts7Options14help_one_groupERKNSt3__112basic_stringIcNS1_11char_traitsIcEENS1_9allocatorIcEEEE, symObjAddr: 0xF220, symBinAddr: 0x1000107C0, symSize: 0x1050 }
  - { offsetInCU: 0x87643, offset: 0x87643, size: 0x8, addend: 0x0, symName: __ZNSt3__114__split_bufferINS_12basic_stringIcNS_11char_traitsIcEENS_9allocatorIcEEEERNS4_IS6_EEED1Ev, symObjAddr: 0xF020, symBinAddr: 0x1000105C0, symSize: 0x60 }
  - { offsetInCU: 0x87F5F, offset: 0x87F5F, size: 0x8, addend: 0x0, symName: __ZNKSt3__16__treeINS_12__value_typeINS_12basic_stringIcNS_11char_traitsIcEENS_9allocatorIcEEEEN7cxxopts16HelpGroupDetailsEEENS_19__map_value_compareIS7_SA_NS_4lessIS7_EELb1EEENS5_ISA_EEE4findIS7_EENS_21__tree_const_iteratorISA_PNS_11__tree_nodeISA_PvEElEERKT_, symObjAddr: 0x10340, symBinAddr: 0x1000118E0, symSize: 0x140 }
  - { offsetInCU: 0x88267, offset: 0x88267, size: 0x8, addend: 0x0, symName: __ZNKSt3__112__hash_tableINS_12basic_stringIcNS_11char_traitsIcEENS_9allocatorIcEEEENS_4hashIS6_EENS_8equal_toIS6_EENS4_IS6_EEE4findIS6_EENS_21__hash_const_iteratorIPNS_11__hash_nodeIS6_PvEEEERKT_, symObjAddr: 0x10480, symBinAddr: 0x100011A20, symSize: 0x300 }
  - { offsetInCU: 0x88504, offset: 0x88504, size: 0x8, addend: 0x0, symName: __ZNSt3__16vectorINS_4pairINS_12basic_stringIcNS_11char_traitsIcEENS_9allocatorIcEEEES7_EENS5_IS8_EEE21__push_back_slow_pathIS8_EEvOT_, symObjAddr: 0x10780, symBinAddr: 0x100011D20, symSize: 0x1F0 }
  - { offsetInCU: 0x88E51, offset: 0x88E51, size: 0x8, addend: 0x0, symName: __ZNSt3__112basic_stringIcNS_11char_traitsIcEENS_9allocatorIcEEE6appendB7v160006INS_11__wrap_iterIPcEEEENS_9enable_ifIXsr27__is_cpp17_forward_iteratorIT_EE5valueERS5_E4typeESB_SB_, symObjAddr: 0x10980, symBinAddr: 0x100011F20, symSize: 0x360 }
  - { offsetInCU: 0x89709, offset: 0x89709, size: 0x8, addend: 0x0, symName: __ZNSt3__14pairINS_12basic_stringIcNS_11char_traitsIcEENS_9allocatorIcEEEES6_ED1Ev, symObjAddr: 0x10270, symBinAddr: 0x100011810, symSize: 0x40 }
  - { offsetInCU: 0x89963, offset: 0x89963, size: 0x8, addend: 0x0, symName: __ZNSt3__16vectorINS_4pairINS_12basic_stringIcNS_11char_traitsIcEENS_9allocatorIcEEEES7_EENS5_IS8_EEED1B7v160006Ev, symObjAddr: 0x102B0, symBinAddr: 0x100011850, symSize: 0x90 }
  - { offsetInCU: 0x8A009, offset: 0x8A009, size: 0x8, addend: 0x0, symName: __ZNKSt3__16vectorINS_4pairINS_12basic_stringIcNS_11char_traitsIcEENS_9allocatorIcEEEES7_EENS5_IS8_EEE20__throw_length_errorB7v160006Ev, symObjAddr: 0x10970, symBinAddr: 0x100011F10, symSize: 0x10 }
  - { offsetInCU: 0x8A033, offset: 0x8A033, size: 0x8, addend: 0x0, symName: __ZNSt3__112basic_stringIcNS_11char_traitsIcEENS_9allocatorIcEEE6appendB7v160006INS_11__wrap_iterIPcEEEENS_9enable_ifIXsr27__is_cpp17_forward_iteratorIT_EE5valueERS5_E4typeESB_SB_, symObjAddr: 0x10980, symBinAddr: 0x100011F20, symSize: 0x360 }
  - { offsetInCU: 0x8A1DD, offset: 0x8A1DD, size: 0x8, addend: 0x0, symName: __ZN7cxxopts28option_not_present_exceptionD1Ev, symObjAddr: 0x10CE0, symBinAddr: 0x100012280, symSize: 0x40 }
  - { offsetInCU: 0x8A38B, offset: 0x8A38B, size: 0x8, addend: 0x0, symName: __ZN7cxxopts28option_not_present_exceptionD0Ev, symObjAddr: 0x10F40, symBinAddr: 0x1000124E0, symSize: 0x40 }
  - { offsetInCU: 0x8A5E1, offset: 0x8A5E1, size: 0x8, addend: 0x0, symName: __ZNSt3__16__treeINS_12__value_typeINS_12basic_stringIcNS_11char_traitsIcEENS_9allocatorIcEEEEN7cxxopts16HelpGroupDetailsEEENS_19__map_value_compareIS7_SA_NS_4lessIS7_EELb1EEENS5_ISA_EEE7destroyEPNS_11__tree_nodeISA_PvEE, symObjAddr: 0x11250, symBinAddr: 0x1000127F0, symSize: 0x50 }
  - { offsetInCU: 0x8A815, offset: 0x8A815, size: 0x8, addend: 0x0, symName: __ZNSt3__111basic_regexIcNS_12regex_traitsIcEEEC2B7v160006EPKcNS_15regex_constants18syntax_option_typeE, symObjAddr: 0x112A0, symBinAddr: 0x100012840, symSize: 0xB0 }
  - { offsetInCU: 0x8A9BF, offset: 0x8A9BF, size: 0x8, addend: 0x0, symName: __ZNSt3__111basic_regexIcNS_12regex_traitsIcEEE7__parseIPKcEET_S7_S7_, symObjAddr: 0x11350, symBinAddr: 0x1000128F0, symSize: 0x330 }
  - { offsetInCU: 0x8BBFC, offset: 0x8BBFC, size: 0x8, addend: 0x0, symName: __ZNSt3__111basic_regexIcNS_12regex_traitsIcEEE13__parse_egrepIPKcEET_S7_S7_, symObjAddr: 0x11D60, symBinAddr: 0x100013300, symSize: 0x1E0 }
  - { offsetInCU: 0x8C05F, offset: 0x8C05F, size: 0x8, addend: 0x0, symName: __ZNSt3__111basic_regexIcNS_12regex_traitsIcEEE24__parse_extended_reg_expIPKcEET_S7_S7_, symObjAddr: 0x119F0, symBinAddr: 0x100012F90, symSize: 0x190 }
  - { offsetInCU: 0x8C3DF, offset: 0x8C3DF, size: 0x8, addend: 0x0, symName: __ZNSt3__111basic_regexIcNS_12regex_traitsIcEEE19__parse_alternativeIPKcEET_S7_S7_, symObjAddr: 0x12160, symBinAddr: 0x100013700, symSize: 0x90 }
  - { offsetInCU: 0x8C4D5, offset: 0x8C4D5, size: 0x8, addend: 0x0, symName: __ZNSt3__111basic_regexIcNS_12regex_traitsIcEEE21__parse_basic_reg_expIPKcEET_S7_S7_, symObjAddr: 0x118A0, symBinAddr: 0x100012E40, symSize: 0x150 }
  - { offsetInCU: 0x8C7F9, offset: 0x8C7F9, size: 0x8, addend: 0x0, symName: __ZNSt3__111basic_regexIcNS_12regex_traitsIcEEE12__parse_grepIPKcEET_S7_S7_, symObjAddr: 0x11B80, symBinAddr: 0x100013120, symSize: 0x1E0 }
  - { offsetInCU: 0x8CCA4, offset: 0x8CCA4, size: 0x8, addend: 0x0, symName: __ZNSt3__111basic_regexIcNS_12regex_traitsIcEEE16__parse_ecma_expIPKcEET_S7_S7_, symObjAddr: 0x116D0, symBinAddr: 0x100012C70, symSize: 0x1D0 }
  - { offsetInCU: 0x8D110, offset: 0x8D110, size: 0x8, addend: 0x0, symName: __ZNSt3__111basic_regexIcNS_12regex_traitsIcEEE12__parse_termIPKcEET_S7_S7_, symObjAddr: 0x121F0, symBinAddr: 0x100013790, symSize: 0x80 }
  - { offsetInCU: 0x8D3C8, offset: 0x8D3C8, size: 0x8, addend: 0x0, symName: __ZNSt3__111basic_regexIcNS_12regex_traitsIcEEE18__parse_nondupl_REIPKcEET_S7_S7_, symObjAddr: 0x19210, symBinAddr: 0x10001A7B0, symSize: 0x1D0 }
  - { offsetInCU: 0x8D8EB, offset: 0x8D8EB, size: 0x8, addend: 0x0, symName: __ZNSt3__111basic_regexIcNS_12regex_traitsIcEEE22__parse_RE_dupl_symbolIPKcEET_S7_S7_PNS_16__owns_one_stateIcEEjj, symObjAddr: 0x193E0, symBinAddr: 0x10001A980, symSize: 0x260 }
  - { offsetInCU: 0x8DED0, offset: 0x8DED0, size: 0x8, addend: 0x0, symName: __ZNSt3__111basic_regexIcNS_12regex_traitsIcEEE32__parse_one_char_or_coll_elem_REIPKcEET_S7_S7_, symObjAddr: 0x19640, symBinAddr: 0x10001ABE0, symSize: 0xF0 }
  - { offsetInCU: 0x8DF29, offset: 0x8DF29, size: 0x8, addend: 0x0, symName: __ZNSt3__111basic_regexIcNS_12regex_traitsIcEEE22__parse_ERE_expressionIPKcEET_S7_S7_, symObjAddr: 0x19820, symBinAddr: 0x10001ADC0, symSize: 0x260 }
  - { offsetInCU: 0x8E3D8, offset: 0x8E3D8, size: 0x8, addend: 0x0, symName: __ZNSt3__111__end_stateIcED1Ev, symObjAddr: 0x11F90, symBinAddr: 0x100013530, symSize: 0x10 }
  - { offsetInCU: 0x8E404, offset: 0x8E404, size: 0x8, addend: 0x0, symName: __ZNSt3__111__end_stateIcED0Ev, symObjAddr: 0x11FA0, symBinAddr: 0x100013540, symSize: 0x10 }
  - { offsetInCU: 0x8E424, offset: 0x8E424, size: 0x8, addend: 0x0, symName: __ZNKSt3__111__end_stateIcE6__execERNS_7__stateIcEE, symObjAddr: 0x11FB0, symBinAddr: 0x100013550, symSize: 0x10 }
  - { offsetInCU: 0x8E45A, offset: 0x8E45A, size: 0x8, addend: 0x0, symName: __ZNKSt3__16__nodeIcE12__exec_splitEbRNS_7__stateIcEE, symObjAddr: 0x11FC0, symBinAddr: 0x100013560, symSize: 0x10 }
  - { offsetInCU: 0x8E4A1, offset: 0x8E4A1, size: 0x8, addend: 0x0, symName: __ZNKSt3__16__nodeIcE6__execERNS_7__stateIcEE, symObjAddr: 0x11FD0, symBinAddr: 0x100013570, symSize: 0x10 }
  - { offsetInCU: 0x8E4ED, offset: 0x8E4ED, size: 0x8, addend: 0x0, symName: __ZNSt3__120__shared_ptr_pointerIPNS_13__empty_stateIcEENS_10shared_ptrIS2_E27__shared_ptr_default_deleteIS2_S2_EENS_9allocatorIS2_EEED1Ev, symObjAddr: 0x11FE0, symBinAddr: 0x100013580, symSize: 0x10 }
  - { offsetInCU: 0x8E545, offset: 0x8E545, size: 0x8, addend: 0x0, symName: __ZNSt3__120__shared_ptr_pointerIPNS_13__empty_stateIcEENS_10shared_ptrIS2_E27__shared_ptr_default_deleteIS2_S2_EENS_9allocatorIS2_EEED0Ev, symObjAddr: 0x11FF0, symBinAddr: 0x100013590, symSize: 0x20 }
  - { offsetInCU: 0x8E5AA, offset: 0x8E5AA, size: 0x8, addend: 0x0, symName: __ZNSt3__120__shared_ptr_pointerIPNS_13__empty_stateIcEENS_10shared_ptrIS2_E27__shared_ptr_default_deleteIS2_S2_EENS_9allocatorIS2_EEE16__on_zero_sharedEv, symObjAddr: 0x12010, symBinAddr: 0x1000135B0, symSize: 0x20 }
  - { offsetInCU: 0x8E640, offset: 0x8E640, size: 0x8, addend: 0x0, symName: __ZNKSt3__120__shared_ptr_pointerIPNS_13__empty_stateIcEENS_10shared_ptrIS2_E27__shared_ptr_default_deleteIS2_S2_EENS_9allocatorIS2_EEE13__get_deleterERKSt9type_info, symObjAddr: 0x12030, symBinAddr: 0x1000135D0, symSize: 0x20 }
  - { offsetInCU: 0x8E708, offset: 0x8E708, size: 0x8, addend: 0x0, symName: __ZNSt3__120__shared_ptr_pointerIPNS_13__empty_stateIcEENS_10shared_ptrIS2_E27__shared_ptr_default_deleteIS2_S2_EENS_9allocatorIS2_EEE21__on_zero_shared_weakEv, symObjAddr: 0x12050, symBinAddr: 0x1000135F0, symSize: 0x10 }
  - { offsetInCU: 0x8E7D8, offset: 0x8E7D8, size: 0x8, addend: 0x0, symName: __ZNSt3__113__empty_stateIcED1Ev, symObjAddr: 0x12060, symBinAddr: 0x100013600, symSize: 0x30 }
  - { offsetInCU: 0x8E844, offset: 0x8E844, size: 0x8, addend: 0x0, symName: __ZNSt3__113__empty_stateIcED0Ev, symObjAddr: 0x12090, symBinAddr: 0x100013630, symSize: 0x40 }
  - { offsetInCU: 0x8E8EB, offset: 0x8E8EB, size: 0x8, addend: 0x0, symName: __ZNKSt3__113__empty_stateIcE6__execERNS_7__stateIcEE, symObjAddr: 0x120D0, symBinAddr: 0x100013670, symSize: 0x20 }
  - { offsetInCU: 0x8E93E, offset: 0x8E93E, size: 0x8, addend: 0x0, symName: __ZNSt3__116__owns_one_stateIcED1Ev, symObjAddr: 0x120F0, symBinAddr: 0x100013690, symSize: 0x30 }
  - { offsetInCU: 0x8E9A7, offset: 0x8E9A7, size: 0x8, addend: 0x0, symName: __ZNSt3__116__owns_one_stateIcED0Ev, symObjAddr: 0x12120, symBinAddr: 0x1000136C0, symSize: 0x40 }
  - { offsetInCU: 0x8EA7E, offset: 0x8EA7E, size: 0x8, addend: 0x0, symName: __ZNSt3__111basic_regexIcNS_12regex_traitsIcEEE23__parse_ERE_dupl_symbolIPKcEET_S7_S7_PNS_16__owns_one_stateIcEEjj, symObjAddr: 0x127F0, symBinAddr: 0x100013D90, symSize: 0x3B0 }
  - { offsetInCU: 0x8EFB9, offset: 0x8EFB9, size: 0x8, addend: 0x0, symName: __ZNSt3__111basic_regexIcNS_12regex_traitsIcEEE17__parse_assertionIPKcEET_S7_S7_, symObjAddr: 0x12270, symBinAddr: 0x100013810, symSize: 0x290 }
  - { offsetInCU: 0x8F56E, offset: 0x8F56E, size: 0x8, addend: 0x0, symName: __ZNSt3__111basic_regexIcNS_12regex_traitsIcEEE12__parse_atomIPKcEET_S7_S7_, symObjAddr: 0x12500, symBinAddr: 0x100013AA0, symSize: 0x2F0 }
  - { offsetInCU: 0x8FA47, offset: 0x8FA47, size: 0x8, addend: 0x0, symName: __ZNSt3__111basic_regexIcNS_12regex_traitsIcEEEC1B7v160006Ev, symObjAddr: 0x12BA0, symBinAddr: 0x100014140, symSize: 0x60 }
  - { offsetInCU: 0x8FB0E, offset: 0x8FB0E, size: 0x8, addend: 0x0, symName: __ZNSt3__111basic_regexIcNS_12regex_traitsIcEEE16__push_lookaheadERKS3_bj, symObjAddr: 0x12C00, symBinAddr: 0x1000141A0, symSize: 0xC0 }
  - { offsetInCU: 0x8FF02, offset: 0x8FF02, size: 0x8, addend: 0x0, symName: __ZNSt3__111basic_regexIcNS_12regex_traitsIcEEE26__parse_bracket_expressionIPKcEET_S7_S7_, symObjAddr: 0x13420, symBinAddr: 0x1000149C0, symSize: 0x140 }
  - { offsetInCU: 0x900F8, offset: 0x900F8, size: 0x8, addend: 0x0, symName: __ZNSt3__111basic_regexIcNS_12regex_traitsIcEEE19__parse_atom_escapeIPKcEET_S7_S7_, symObjAddr: 0x13310, symBinAddr: 0x1000148B0, symSize: 0x110 }
  - { offsetInCU: 0x9029B, offset: 0x9029B, size: 0x8, addend: 0x0, symName: __ZNSt3__111basic_regexIcNS_12regex_traitsIcEEE25__parse_pattern_characterIPKcEET_S7_S7_, symObjAddr: 0x135B0, symBinAddr: 0x100014B50, symSize: 0x1B0 }
  - { offsetInCU: 0x9045F, offset: 0x9045F, size: 0x8, addend: 0x0, symName: __ZNSt3__111basic_regexIcNS_12regex_traitsIcEEE11__push_loopEmmPNS_16__owns_one_stateIcEEmmb, symObjAddr: 0x18A80, symBinAddr: 0x10001A020, symSize: 0x150 }
  - { offsetInCU: 0x90A1D, offset: 0x90A1D, size: 0x8, addend: 0x0, symName: __ZNSt3__120__l_anchor_multilineIcED1Ev, symObjAddr: 0x12D10, symBinAddr: 0x1000142B0, symSize: 0x30 }
  - { offsetInCU: 0x90AA6, offset: 0x90AA6, size: 0x8, addend: 0x0, symName: __ZNSt3__120__l_anchor_multilineIcED0Ev, symObjAddr: 0x12D40, symBinAddr: 0x1000142E0, symSize: 0x40 }
  - { offsetInCU: 0x90B3D, offset: 0x90B3D, size: 0x8, addend: 0x0, symName: __ZNKSt3__120__l_anchor_multilineIcE6__execERNS_7__stateIcEE, symObjAddr: 0x12D80, symBinAddr: 0x100014320, symSize: 0x60 }
  - { offsetInCU: 0x90B90, offset: 0x90B90, size: 0x8, addend: 0x0, symName: __ZNSt3__120__r_anchor_multilineIcED1Ev, symObjAddr: 0x12DE0, symBinAddr: 0x100014380, symSize: 0x30 }
  - { offsetInCU: 0x90C19, offset: 0x90C19, size: 0x8, addend: 0x0, symName: __ZNSt3__120__r_anchor_multilineIcED0Ev, symObjAddr: 0x12E10, symBinAddr: 0x1000143B0, symSize: 0x40 }
  - { offsetInCU: 0x90CB0, offset: 0x90CB0, size: 0x8, addend: 0x0, symName: __ZNKSt3__120__r_anchor_multilineIcE6__execERNS_7__stateIcEE, symObjAddr: 0x12E50, symBinAddr: 0x1000143F0, symSize: 0x50 }
  - { offsetInCU: 0x90D03, offset: 0x90D03, size: 0x8, addend: 0x0, symName: __ZNSt3__115__word_boundaryIcNS_12regex_traitsIcEEED1Ev, symObjAddr: 0x12EA0, symBinAddr: 0x100014440, symSize: 0x50 }
  - { offsetInCU: 0x90DC6, offset: 0x90DC6, size: 0x8, addend: 0x0, symName: __ZNSt3__115__word_boundaryIcNS_12regex_traitsIcEEED0Ev, symObjAddr: 0x12EF0, symBinAddr: 0x100014490, symSize: 0x50 }
  - { offsetInCU: 0x90F0F, offset: 0x90F0F, size: 0x8, addend: 0x0, symName: __ZNKSt3__115__word_boundaryIcNS_12regex_traitsIcEEE6__execERNS_7__stateIcEE, symObjAddr: 0x12F40, symBinAddr: 0x1000144E0, symSize: 0x110 }
  - { offsetInCU: 0x910CA, offset: 0x910CA, size: 0x8, addend: 0x0, symName: __ZNSt3__111__lookaheadIcNS_12regex_traitsIcEEED1Ev, symObjAddr: 0x13050, symBinAddr: 0x1000145F0, symSize: 0x90 }
  - { offsetInCU: 0x9126F, offset: 0x9126F, size: 0x8, addend: 0x0, symName: __ZNSt3__111__lookaheadIcNS_12regex_traitsIcEEED0Ev, symObjAddr: 0x130E0, symBinAddr: 0x100014680, symSize: 0x90 }
  - { offsetInCU: 0x91420, offset: 0x91420, size: 0x8, addend: 0x0, symName: __ZNKSt3__111__lookaheadIcNS_12regex_traitsIcEEE6__execERNS_7__stateIcEE, symObjAddr: 0x13170, symBinAddr: 0x100014710, symSize: 0x1A0 }
  - { offsetInCU: 0x919D9, offset: 0x919D9, size: 0x8, addend: 0x0, symName: __ZNSt3__111basic_regexIcNS_12regex_traitsIcEEE11__push_charEc, symObjAddr: 0x13EA0, symBinAddr: 0x100015440, symSize: 0x140 }
  - { offsetInCU: 0x91D78, offset: 0x91D78, size: 0x8, addend: 0x0, symName: __ZNSt3__111basic_regexIcNS_12regex_traitsIcEEE15__push_back_refEi, symObjAddr: 0x14030, symBinAddr: 0x1000155D0, symSize: 0xD0 }
  - { offsetInCU: 0x91FCC, offset: 0x91FCC, size: 0x8, addend: 0x0, symName: __ZNSt3__111basic_regexIcNS_12regex_traitsIcEEE30__parse_character_class_escapeIPKcEET_S7_S7_, symObjAddr: 0x13820, symBinAddr: 0x100014DC0, symSize: 0x2E0 }
  - { offsetInCU: 0x924BE, offset: 0x924BE, size: 0x8, addend: 0x0, symName: __ZNSt3__111basic_regexIcNS_12regex_traitsIcEEE24__parse_character_escapeIPKcEET_S7_S7_PNS_12basic_stringIcNS_11char_traitsIcEENS_9allocatorIcEEEE, symObjAddr: 0x13B00, symBinAddr: 0x1000150A0, symSize: 0x3A0 }
  - { offsetInCU: 0x92A08, offset: 0x92A08, size: 0x8, addend: 0x0, symName: __ZNSt3__120__bracket_expressionIcNS_12regex_traitsIcEEEC2B7v160006ERKS2_PNS_6__nodeIcEEbbb, symObjAddr: 0x14FF0, symBinAddr: 0x100016590, symSize: 0x1A0 }
  - { offsetInCU: 0x9322E, offset: 0x9322E, size: 0x8, addend: 0x0, symName: __ZNSt3__120__bracket_expressionIcNS_12regex_traitsIcEEE10__add_charB7v160006Ec, symObjAddr: 0x14720, symBinAddr: 0x100015CC0, symSize: 0x8D0 }
  - { offsetInCU: 0x93E82, offset: 0x93E82, size: 0x8, addend: 0x0, symName: __ZNSt3__111basic_regexIcNS_12regex_traitsIcEEE23__parse_expression_termIPKcEET_S7_S7_PNS_20__bracket_expressionIcS2_EE, symObjAddr: 0x163E0, symBinAddr: 0x100017980, symSize: 0x480 }
  - { offsetInCU: 0x94EA0, offset: 0x94EA0, size: 0x8, addend: 0x0, symName: __ZNSt3__123__match_any_but_newlineIcED1Ev, symObjAddr: 0x13760, symBinAddr: 0x100014D00, symSize: 0x30 }
  - { offsetInCU: 0x94F29, offset: 0x94F29, size: 0x8, addend: 0x0, symName: __ZNSt3__123__match_any_but_newlineIcED0Ev, symObjAddr: 0x13790, symBinAddr: 0x100014D30, symSize: 0x40 }
  - { offsetInCU: 0x953C3, offset: 0x953C3, size: 0x8, addend: 0x0, symName: __ZNSt3__118__match_char_icaseIcNS_12regex_traitsIcEEED1Ev, symObjAddr: 0x14100, symBinAddr: 0x1000156A0, symSize: 0x50 }
  - { offsetInCU: 0x95486, offset: 0x95486, size: 0x8, addend: 0x0, symName: __ZNSt3__118__match_char_icaseIcNS_12regex_traitsIcEEED0Ev, symObjAddr: 0x14150, symBinAddr: 0x1000156F0, symSize: 0x50 }
  - { offsetInCU: 0x95555, offset: 0x95555, size: 0x8, addend: 0x0, symName: __ZNKSt3__118__match_char_icaseIcNS_12regex_traitsIcEEE6__execERNS_7__stateIcEE, symObjAddr: 0x141A0, symBinAddr: 0x100015740, symSize: 0x50 }
  - { offsetInCU: 0x95610, offset: 0x95610, size: 0x8, addend: 0x0, symName: __ZNSt3__120__match_char_collateIcNS_12regex_traitsIcEEED1Ev, symObjAddr: 0x141F0, symBinAddr: 0x100015790, symSize: 0x50 }
  - { offsetInCU: 0x956D3, offset: 0x956D3, size: 0x8, addend: 0x0, symName: __ZNSt3__120__match_char_collateIcNS_12regex_traitsIcEEED0Ev, symObjAddr: 0x14240, symBinAddr: 0x1000157E0, symSize: 0x50 }
  - { offsetInCU: 0x957A2, offset: 0x957A2, size: 0x8, addend: 0x0, symName: __ZNKSt3__120__match_char_collateIcNS_12regex_traitsIcEEE6__execERNS_7__stateIcEE, symObjAddr: 0x14290, symBinAddr: 0x100015830, symSize: 0x40 }
  - { offsetInCU: 0x95812, offset: 0x95812, size: 0x8, addend: 0x0, symName: __ZNSt3__112__match_charIcED1Ev, symObjAddr: 0x142D0, symBinAddr: 0x100015870, symSize: 0x30 }
  - { offsetInCU: 0x9589B, offset: 0x9589B, size: 0x8, addend: 0x0, symName: __ZNSt3__112__match_charIcED0Ev, symObjAddr: 0x14300, symBinAddr: 0x1000158A0, symSize: 0x40 }
  - { offsetInCU: 0x95932, offset: 0x95932, size: 0x8, addend: 0x0, symName: __ZNKSt3__112__match_charIcE6__execERNS_7__stateIcEE, symObjAddr: 0x14340, symBinAddr: 0x1000158E0, symSize: 0x40 }
  - { offsetInCU: 0x959A2, offset: 0x959A2, size: 0x8, addend: 0x0, symName: __ZNSt3__116__back_ref_icaseIcNS_12regex_traitsIcEEED1Ev, symObjAddr: 0x14380, symBinAddr: 0x100015920, symSize: 0x50 }
  - { offsetInCU: 0x95A65, offset: 0x95A65, size: 0x8, addend: 0x0, symName: __ZNSt3__116__back_ref_icaseIcNS_12regex_traitsIcEEED0Ev, symObjAddr: 0x143D0, symBinAddr: 0x100015970, symSize: 0x50 }
  - { offsetInCU: 0x95B34, offset: 0x95B34, size: 0x8, addend: 0x0, symName: __ZNKSt3__116__back_ref_icaseIcNS_12regex_traitsIcEEE6__execERNS_7__stateIcEE, symObjAddr: 0x14420, symBinAddr: 0x1000159C0, symSize: 0xD0 }
  - { offsetInCU: 0x95CA4, offset: 0x95CA4, size: 0x8, addend: 0x0, symName: __ZNSt3__118__back_ref_collateIcNS_12regex_traitsIcEEED1Ev, symObjAddr: 0x144F0, symBinAddr: 0x100015A90, symSize: 0x50 }
  - { offsetInCU: 0x95D67, offset: 0x95D67, size: 0x8, addend: 0x0, symName: __ZNSt3__118__back_ref_collateIcNS_12regex_traitsIcEEED0Ev, symObjAddr: 0x14540, symBinAddr: 0x100015AE0, symSize: 0x50 }
  - { offsetInCU: 0x95E36, offset: 0x95E36, size: 0x8, addend: 0x0, symName: __ZNKSt3__118__back_ref_collateIcNS_12regex_traitsIcEEE6__execERNS_7__stateIcEE, symObjAddr: 0x14590, symBinAddr: 0x100015B30, symSize: 0x80 }
  - { offsetInCU: 0x95F11, offset: 0x95F11, size: 0x8, addend: 0x0, symName: __ZNSt3__110__back_refIcED1Ev, symObjAddr: 0x14610, symBinAddr: 0x100015BB0, symSize: 0x30 }
  - { offsetInCU: 0x95F9A, offset: 0x95F9A, size: 0x8, addend: 0x0, symName: __ZNSt3__110__back_refIcED0Ev, symObjAddr: 0x14640, symBinAddr: 0x100015BE0, symSize: 0x40 }
  - { offsetInCU: 0x96080, offset: 0x96080, size: 0x8, addend: 0x0, symName: __ZNKSt3__110__back_refIcE6__execERNS_7__stateIcEE, symObjAddr: 0x14680, symBinAddr: 0x100015C20, symSize: 0xA0 }
  - { offsetInCU: 0x9619A, offset: 0x9619A, size: 0x8, addend: 0x0, symName: __ZNSt3__120__bracket_expressionIcNS_12regex_traitsIcEEE10__add_charB7v160006Ec, symObjAddr: 0x14720, symBinAddr: 0x100015CC0, symSize: 0x8D0 }
  - { offsetInCU: 0x9662B, offset: 0x9662B, size: 0x8, addend: 0x0, symName: __ZNKSt3__16vectorIcNS_9allocatorIcEEE20__throw_length_errorB7v160006Ev, symObjAddr: 0x16380, symBinAddr: 0x100017920, symSize: 0x10 }
  - { offsetInCU: 0x96655, offset: 0x96655, size: 0x8, addend: 0x0, symName: __ZNSt3__119__throw_regex_errorB7v160006ILNS_15regex_constants10error_typeE5EEEvv, symObjAddr: 0x16390, symBinAddr: 0x100017930, symSize: 0x50 }
  - { offsetInCU: 0x96836, offset: 0x96836, size: 0x8, addend: 0x0, symName: __ZNSt3__120__bracket_expressionIcNS_12regex_traitsIcEEED1Ev, symObjAddr: 0x15190, symBinAddr: 0x100016730, symSize: 0x10 }
  - { offsetInCU: 0x9686C, offset: 0x9686C, size: 0x8, addend: 0x0, symName: __ZNSt3__120__bracket_expressionIcNS_12regex_traitsIcEEED2Ev, symObjAddr: 0x15DA0, symBinAddr: 0x100017340, symSize: 0x150 }
  - { offsetInCU: 0x9733A, offset: 0x9733A, size: 0x8, addend: 0x0, symName: __ZNSt3__120__bracket_expressionIcNS_12regex_traitsIcEEED0Ev, symObjAddr: 0x151A0, symBinAddr: 0x100016740, symSize: 0x20 }
  - { offsetInCU: 0x9768B, offset: 0x9768B, size: 0x8, addend: 0x0, symName: __ZNKSt3__120__bracket_expressionIcNS_12regex_traitsIcEEE6__execERNS_7__stateIcEE, symObjAddr: 0x151C0, symBinAddr: 0x100016760, symSize: 0xBE0 }
  - { offsetInCU: 0x9915D, offset: 0x9915D, size: 0x8, addend: 0x0, symName: __ZNKSt3__112regex_traitsIcE20__lookup_collatenameIPcEENS_12basic_stringIcNS_11char_traitsIcEENS_9allocatorIcEEEET_SA_c, symObjAddr: 0x15FF0, symBinAddr: 0x100017590, symSize: 0x230 }
  - { offsetInCU: 0x99CA2, offset: 0x99CA2, size: 0x8, addend: 0x0, symName: __ZNKSt3__112regex_traitsIcE9transformIPcEENS_12basic_stringIcNS_11char_traitsIcEENS_9allocatorIcEEEET_SA_, symObjAddr: 0x15EF0, symBinAddr: 0x100017490, symSize: 0x100 }
  - { offsetInCU: 0x9A268, offset: 0x9A268, size: 0x8, addend: 0x0, symName: __ZNKSt3__112regex_traitsIcE19__transform_primaryIPcEENS_12basic_stringIcNS_11char_traitsIcEENS_9allocatorIcEEEET_SA_c, symObjAddr: 0x16220, symBinAddr: 0x1000177C0, symSize: 0x160 }
  - { offsetInCU: 0x9AAE8, offset: 0x9AAE8, size: 0x8, addend: 0x0, symName: __ZNSt3__111basic_regexIcNS_12regex_traitsIcEEE25__parse_equivalence_classIPKcEET_S7_S7_PNS_20__bracket_expressionIcS2_EE, symObjAddr: 0x16860, symBinAddr: 0x100017E00, symSize: 0x220 }
  - { offsetInCU: 0x9B5F8, offset: 0x9B5F8, size: 0x8, addend: 0x0, symName: __ZNSt3__111basic_regexIcNS_12regex_traitsIcEEE18__parse_awk_escapeIPKcEET_S7_S7_PNS_12basic_stringIcNS_11char_traitsIcEENS_9allocatorIcEEEE, symObjAddr: 0x16CF0, symBinAddr: 0x100018290, symSize: 0x320 }
  - { offsetInCU: 0x9B71F, offset: 0x9B71F, size: 0x8, addend: 0x0, symName: __ZNKSt3__112regex_traitsIcE18__lookup_classnameIPKcEEjT_S5_bc, symObjAddr: 0x17DF0, symBinAddr: 0x100019390, symSize: 0x120 }
  - { offsetInCU: 0x9BDA2, offset: 0x9BDA2, size: 0x8, addend: 0x0, symName: __ZNSt3__111basic_regexIcNS_12regex_traitsIcEEE24__parse_collating_symbolIPKcEET_S7_S7_RNS_12basic_stringIcNS_11char_traitsIcEENS_9allocatorIcEEEE, symObjAddr: 0x16A80, symBinAddr: 0x100018020, symSize: 0xE0 }
  - { offsetInCU: 0x9C188, offset: 0x9C188, size: 0x8, addend: 0x0, symName: __ZNSt3__111basic_regexIcNS_12regex_traitsIcEEE20__parse_class_escapeIPKcEET_S7_S7_RNS_12basic_stringIcNS_11char_traitsIcEENS_9allocatorIcEEEEPNS_20__bracket_expressionIcS2_EE, symObjAddr: 0x16B60, symBinAddr: 0x100018100, symSize: 0x190 }
  - { offsetInCU: 0x9C31F, offset: 0x9C31F, size: 0x8, addend: 0x0, symName: __ZNSt3__120__bracket_expressionIcNS_12regex_traitsIcEEE13__add_digraphB7v160006Ecc, symObjAddr: 0x17430, symBinAddr: 0x1000189D0, symSize: 0x590 }
  - { offsetInCU: 0x9CD01, offset: 0x9CD01, size: 0x8, addend: 0x0, symName: __ZNSt3__119__throw_regex_errorB7v160006ILNS_15regex_constants10error_typeE1EEEvv, symObjAddr: 0x179C0, symBinAddr: 0x100018F60, symSize: 0x50 }
  - { offsetInCU: 0x9CD0C, offset: 0x9CD0C, size: 0x8, addend: 0x0, symName: __ZNSt3__120__bracket_expressionIcNS_12regex_traitsIcEEE11__add_rangeB7v160006ENS_12basic_stringIcNS_11char_traitsIcEENS_9allocatorIcEEEES9_, symObjAddr: 0x17010, symBinAddr: 0x1000185B0, symSize: 0x420 }
  - { offsetInCU: 0x9E561, offset: 0x9E561, size: 0x8, addend: 0x0, symName: __ZNKSt3__112regex_traitsIcE20__lookup_collatenameIPKcEENS_12basic_stringIcNS_11char_traitsIcEENS_9allocatorIcEEEET_SB_c, symObjAddr: 0x17A10, symBinAddr: 0x100018FB0, symSize: 0x230 }
  - { offsetInCU: 0x9F0A6, offset: 0x9F0A6, size: 0x8, addend: 0x0, symName: __ZNKSt3__112regex_traitsIcE19__transform_primaryINS_11__wrap_iterIPcEEEENS_12basic_stringIcNS_11char_traitsIcEENS_9allocatorIcEEEET_SC_c, symObjAddr: 0x17C40, symBinAddr: 0x1000191E0, symSize: 0x160 }
  - { offsetInCU: 0x9F7EB, offset: 0x9F7EB, size: 0x8, addend: 0x0, symName: __ZNSt3__120__bracket_expressionIcNS_12regex_traitsIcEEE14__add_neg_charB7v160006Ec, symObjAddr: 0x17F10, symBinAddr: 0x1000194B0, symSize: 0x8D0 }
  - { offsetInCU: 0xA04CF, offset: 0xA04CF, size: 0x8, addend: 0x0, symName: __ZNKSt3__112regex_traitsIcE9transformINS_11__wrap_iterIPcEEEENS_12basic_stringIcNS_11char_traitsIcEENS_9allocatorIcEEEET_SC_, symObjAddr: 0x187E0, symBinAddr: 0x100019D80, symSize: 0x100 }
  - { offsetInCU: 0xA0DC5, offset: 0xA0DC5, size: 0x8, addend: 0x0, symName: __ZNKSt3__16vectorINS_4pairIccEENS_9allocatorIS2_EEE20__throw_length_errorB7v160006Ev, symObjAddr: 0x18930, symBinAddr: 0x100019ED0, symSize: 0x10 }
  - { offsetInCU: 0xA0DEF, offset: 0xA0DEF, size: 0x8, addend: 0x0, symName: __ZNSt3__128__begin_marked_subexpressionIcED1Ev, symObjAddr: 0x18940, symBinAddr: 0x100019EE0, symSize: 0x30 }
  - { offsetInCU: 0xA0EBD, offset: 0xA0EBD, size: 0x8, addend: 0x0, symName: __ZNSt3__128__begin_marked_subexpressionIcED1Ev, symObjAddr: 0x18940, symBinAddr: 0x100019EE0, symSize: 0x30 }
  - { offsetInCU: 0xA0F46, offset: 0xA0F46, size: 0x8, addend: 0x0, symName: __ZNSt3__128__begin_marked_subexpressionIcED0Ev, symObjAddr: 0x18970, symBinAddr: 0x100019F10, symSize: 0x40 }
  - { offsetInCU: 0xA0FDD, offset: 0xA0FDD, size: 0x8, addend: 0x0, symName: __ZNKSt3__128__begin_marked_subexpressionIcE6__execERNS_7__stateIcEE, symObjAddr: 0x189B0, symBinAddr: 0x100019F50, symSize: 0x30 }
  - { offsetInCU: 0xA1073, offset: 0xA1073, size: 0x8, addend: 0x0, symName: __ZNSt3__126__end_marked_subexpressionIcED1Ev, symObjAddr: 0x189E0, symBinAddr: 0x100019F80, symSize: 0x30 }
  - { offsetInCU: 0xA10FC, offset: 0xA10FC, size: 0x8, addend: 0x0, symName: __ZNSt3__126__end_marked_subexpressionIcED0Ev, symObjAddr: 0x18A10, symBinAddr: 0x100019FB0, symSize: 0x40 }
  - { offsetInCU: 0xA1193, offset: 0xA1193, size: 0x8, addend: 0x0, symName: __ZNKSt3__126__end_marked_subexpressionIcE6__execERNS_7__stateIcEE, symObjAddr: 0x18A50, symBinAddr: 0x100019FF0, symSize: 0x30 }
  - { offsetInCU: 0xA14C2, offset: 0xA14C2, size: 0x8, addend: 0x0, symName: __ZNSt3__16__loopIcED0Ev, symObjAddr: 0x18CC0, symBinAddr: 0x10001A260, symSize: 0x60 }
  - { offsetInCU: 0xA15BB, offset: 0xA15BB, size: 0x8, addend: 0x0, symName: __ZNSt3__16__loopIcED1Ev, symObjAddr: 0x18C70, symBinAddr: 0x10001A210, symSize: 0x50 }
  - { offsetInCU: 0xA16A6, offset: 0xA16A6, size: 0x8, addend: 0x0, symName: __ZNKSt3__16__loopIcE6__execERNS_7__stateIcEE, symObjAddr: 0x18D20, symBinAddr: 0x10001A2C0, symSize: 0x1D0 }
  - { offsetInCU: 0xA185C, offset: 0xA185C, size: 0x8, addend: 0x0, symName: __ZNKSt3__16__loopIcE12__exec_splitEbRNS_7__stateIcEE, symObjAddr: 0x18EF0, symBinAddr: 0x10001A490, symSize: 0xC0 }
  - { offsetInCU: 0xA1962, offset: 0xA1962, size: 0x8, addend: 0x0, symName: __ZNSt3__117__owns_two_statesIcED1Ev, symObjAddr: 0x18FB0, symBinAddr: 0x10001A550, symSize: 0x50 }
  - { offsetInCU: 0xA19F6, offset: 0xA19F6, size: 0x8, addend: 0x0, symName: __ZNSt3__117__owns_two_statesIcED0Ev, symObjAddr: 0x19000, symBinAddr: 0x10001A5A0, symSize: 0x60 }
  - { offsetInCU: 0xA1A96, offset: 0xA1A96, size: 0x8, addend: 0x0, symName: __ZNSt3__117__repeat_one_loopIcED1Ev, symObjAddr: 0x19060, symBinAddr: 0x10001A600, symSize: 0x10 }
  - { offsetInCU: 0xA1AC2, offset: 0xA1AC2, size: 0x8, addend: 0x0, symName: __ZNSt3__117__repeat_one_loopIcED0Ev, symObjAddr: 0x19070, symBinAddr: 0x10001A610, symSize: 0x10 }
  - { offsetInCU: 0xA1AEE, offset: 0xA1AEE, size: 0x8, addend: 0x0, symName: __ZNKSt3__117__repeat_one_loopIcE6__execERNS_7__stateIcEE, symObjAddr: 0x19080, symBinAddr: 0x10001A620, symSize: 0x20 }
  - { offsetInCU: 0xA1B5E, offset: 0xA1B5E, size: 0x8, addend: 0x0, symName: __ZNSt3__111__alternateIcED1Ev, symObjAddr: 0x190A0, symBinAddr: 0x10001A640, symSize: 0x50 }
  - { offsetInCU: 0xA1C12, offset: 0xA1C12, size: 0x8, addend: 0x0, symName: __ZNSt3__111__alternateIcED0Ev, symObjAddr: 0x190F0, symBinAddr: 0x10001A690, symSize: 0x60 }
  - { offsetInCU: 0xA1CD2, offset: 0xA1CD2, size: 0x8, addend: 0x0, symName: __ZNKSt3__111__alternateIcE6__execERNS_7__stateIcEE, symObjAddr: 0x19150, symBinAddr: 0x10001A6F0, symSize: 0x10 }
  - { offsetInCU: 0xA1D08, offset: 0xA1D08, size: 0x8, addend: 0x0, symName: __ZNKSt3__111__alternateIcE12__exec_splitEbRNS_7__stateIcEE, symObjAddr: 0x19160, symBinAddr: 0x10001A700, symSize: 0x20 }
  - { offsetInCU: 0xA1D59, offset: 0xA1D59, size: 0x8, addend: 0x0, symName: __ZNSt3__121__empty_non_own_stateIcED1Ev, symObjAddr: 0x19180, symBinAddr: 0x10001A720, symSize: 0x10 }
  - { offsetInCU: 0xA1D85, offset: 0xA1D85, size: 0x8, addend: 0x0, symName: __ZNSt3__121__empty_non_own_stateIcED0Ev, symObjAddr: 0x19190, symBinAddr: 0x10001A730, symSize: 0x10 }
  - { offsetInCU: 0xA1DB1, offset: 0xA1DB1, size: 0x8, addend: 0x0, symName: __ZNKSt3__121__empty_non_own_stateIcE6__execERNS_7__stateIcEE, symObjAddr: 0x191A0, symBinAddr: 0x10001A740, symSize: 0x20 }
  - { offsetInCU: 0xA1F0C, offset: 0xA1F0C, size: 0x8, addend: 0x0, symName: __ZNSt3__111basic_regexIcNS_12regex_traitsIcEEE32__parse_one_char_or_coll_elem_REIPKcEET_S7_S7_, symObjAddr: 0x19640, symBinAddr: 0x10001ABE0, symSize: 0xF0 }
  - { offsetInCU: 0xA22F4, offset: 0xA22F4, size: 0x8, addend: 0x0, symName: __ZNSt3__111__match_anyIcED1Ev, symObjAddr: 0x19730, symBinAddr: 0x10001ACD0, symSize: 0x30 }
  - { offsetInCU: 0xA237D, offset: 0xA237D, size: 0x8, addend: 0x0, symName: __ZNSt3__111__match_anyIcED0Ev, symObjAddr: 0x19760, symBinAddr: 0x10001AD00, symSize: 0x40 }
  - { offsetInCU: 0xA2414, offset: 0xA2414, size: 0x8, addend: 0x0, symName: __ZNKSt3__111__match_anyIcE6__execERNS_7__stateIcEE, symObjAddr: 0x197A0, symBinAddr: 0x10001AD40, symSize: 0x40 }
  - { offsetInCU: 0xA2467, offset: 0xA2467, size: 0x8, addend: 0x0, symName: __ZNSt3__111basic_regexIcNS_12regex_traitsIcEEE15__test_back_refEc, symObjAddr: 0x197E0, symBinAddr: 0x10001AD80, symSize: 0x40 }
  - { offsetInCU: 0xA2593, offset: 0xA2593, size: 0x8, addend: 0x0, symName: __ZNSt3__111basic_regexIcNS_12regex_traitsIcEEE20__parse_ORD_CHAR_EREIPKcEET_S7_S7_, symObjAddr: 0x19A80, symBinAddr: 0x10001B020, symSize: 0x1B0 }
  - { offsetInCU: 0xA25F3, offset: 0xA25F3, size: 0x8, addend: 0x0, symName: __ZNSt3__111basic_regexIcNS_12regex_traitsIcEEE23__parse_QUOTED_CHAR_EREIPKcEET_S7_S7_, symObjAddr: 0x19C30, symBinAddr: 0x10001B1D0, symSize: 0x1F0 }
  - { offsetInCU: 0xA2F24, offset: 0xA2F24, size: 0x8, addend: 0x0, symName: __ZNSt3__120__shared_ptr_emplaceIN7cxxopts6values14standard_valueIiEENS_9allocatorIS4_EEED1Ev, symObjAddr: 0x1A200, symBinAddr: 0x10001B7A0, symSize: 0x20 }
  - { offsetInCU: 0xA2F7E, offset: 0xA2F7E, size: 0x8, addend: 0x0, symName: __ZNSt3__120__shared_ptr_emplaceIN7cxxopts6values14standard_valueIiEENS_9allocatorIS4_EEED0Ev, symObjAddr: 0x1A220, symBinAddr: 0x10001B7C0, symSize: 0x30 }
  - { offsetInCU: 0xA2FFC, offset: 0xA2FFC, size: 0x8, addend: 0x0, symName: __ZNSt3__120__shared_ptr_emplaceIN7cxxopts6values14standard_valueIiEENS_9allocatorIS4_EEE16__on_zero_sharedEv, symObjAddr: 0x1A250, symBinAddr: 0x10001B7F0, symSize: 0x10 }
  - { offsetInCU: 0xA304C, offset: 0xA304C, size: 0x8, addend: 0x0, symName: __ZNSt3__120__shared_ptr_emplaceIN7cxxopts6values14standard_valueIiEENS_9allocatorIS4_EEE21__on_zero_shared_weakEv, symObjAddr: 0x1A260, symBinAddr: 0x10001B800, symSize: 0x10 }
  - { offsetInCU: 0xA321C, offset: 0xA321C, size: 0x8, addend: 0x0, symName: __ZN7cxxopts6values14standard_valueIiED1Ev, symObjAddr: 0x1A270, symBinAddr: 0x10001B810, symSize: 0xA0 }
  - { offsetInCU: 0xA354F, offset: 0xA354F, size: 0x8, addend: 0x0, symName: __ZN7cxxopts6values14standard_valueIiED0Ev, symObjAddr: 0x1A310, symBinAddr: 0x10001B8B0, symSize: 0xA0 }
  - { offsetInCU: 0xA3878, offset: 0xA3878, size: 0x8, addend: 0x0, symName: __ZNK7cxxopts6values14standard_valueIiE5cloneEv, symObjAddr: 0x1A3B0, symBinAddr: 0x10001B950, symSize: 0x30 }
  - { offsetInCU: 0xA392F, offset: 0xA392F, size: 0x8, addend: 0x0, symName: __ZNK7cxxopts6values14abstract_valueIiE5parseERKNSt3__112basic_stringIcNS3_11char_traitsIcEENS3_9allocatorIcEEEE, symObjAddr: 0x1A3E0, symBinAddr: 0x10001B980, symSize: 0x20 }
  - { offsetInCU: 0xA39A0, offset: 0xA39A0, size: 0x8, addend: 0x0, symName: __ZNK7cxxopts6values14abstract_valueIiE5parseEv, symObjAddr: 0x1A400, symBinAddr: 0x10001B9A0, symSize: 0x20 }
  - { offsetInCU: 0xA39F9, offset: 0xA39F9, size: 0x8, addend: 0x0, symName: __ZNK7cxxopts6values14abstract_valueIiE11has_defaultEv, symObjAddr: 0x1A420, symBinAddr: 0x10001B9C0, symSize: 0x10 }
  - { offsetInCU: 0xA3A1E, offset: 0xA3A1E, size: 0x8, addend: 0x0, symName: __ZNK7cxxopts6values14abstract_valueIiE12is_containerEv, symObjAddr: 0x1A430, symBinAddr: 0x10001B9D0, symSize: 0x10 }
  - { offsetInCU: 0xA3A43, offset: 0xA3A43, size: 0x8, addend: 0x0, symName: __ZNK7cxxopts6values14abstract_valueIiE12has_implicitEv, symObjAddr: 0x1A440, symBinAddr: 0x10001B9E0, symSize: 0x10 }
  - { offsetInCU: 0xA3A68, offset: 0xA3A68, size: 0x8, addend: 0x0, symName: __ZNK7cxxopts6values14abstract_valueIiE17get_default_valueEv, symObjAddr: 0x1A450, symBinAddr: 0x10001B9F0, symSize: 0x20 }
  - { offsetInCU: 0xA3A8F, offset: 0xA3A8F, size: 0x8, addend: 0x0, symName: __ZNK7cxxopts6values14abstract_valueIiE18get_implicit_valueEv, symObjAddr: 0x1A470, symBinAddr: 0x10001BA10, symSize: 0x20 }
  - { offsetInCU: 0xA3B2C, offset: 0xA3B2C, size: 0x8, addend: 0x0, symName: __ZN7cxxopts6values14abstract_valueIiE13default_valueERKNSt3__112basic_stringIcNS3_11char_traitsIcEENS3_9allocatorIcEEEE, symObjAddr: 0x1A490, symBinAddr: 0x10001BA30, symSize: 0x50 }
  - { offsetInCU: 0xA3BBD, offset: 0xA3BBD, size: 0x8, addend: 0x0, symName: __ZN7cxxopts6values14abstract_valueIiE14implicit_valueERKNSt3__112basic_stringIcNS3_11char_traitsIcEENS3_9allocatorIcEEEE, symObjAddr: 0x1A4E0, symBinAddr: 0x10001BA80, symSize: 0x50 }
  - { offsetInCU: 0xA3BC8, offset: 0xA3BC8, size: 0x8, addend: 0x0, symName: __ZN7cxxopts6values14abstract_valueIiE14implicit_valueERKNSt3__112basic_stringIcNS3_11char_traitsIcEENS3_9allocatorIcEEEE, symObjAddr: 0x1A4E0, symBinAddr: 0x10001BA80, symSize: 0x50 }
  - { offsetInCU: 0xA3C59, offset: 0xA3C59, size: 0x8, addend: 0x0, symName: __ZN7cxxopts6values14abstract_valueIiE17no_implicit_valueEv, symObjAddr: 0x1A530, symBinAddr: 0x10001BAD0, symSize: 0x50 }
  - { offsetInCU: 0xA3C64, offset: 0xA3C64, size: 0x8, addend: 0x0, symName: __ZN7cxxopts6values14abstract_valueIiE17no_implicit_valueEv, symObjAddr: 0x1A530, symBinAddr: 0x10001BAD0, symSize: 0x50 }
  - { offsetInCU: 0xA3CF0, offset: 0xA3CF0, size: 0x8, addend: 0x0, symName: __ZNK7cxxopts6values14abstract_valueIiE10is_booleanEv, symObjAddr: 0x1A580, symBinAddr: 0x10001BB20, symSize: 0x10 }
  - { offsetInCU: 0xA3D15, offset: 0xA3D15, size: 0x8, addend: 0x0, symName: __ZN7cxxopts6values14abstract_valueIiED1Ev, symObjAddr: 0x1A590, symBinAddr: 0x10001D560, symSize: 0x10 }
  - { offsetInCU: 0xA3D3E, offset: 0xA3D3E, size: 0x8, addend: 0x0, symName: __ZN7cxxopts6values14abstract_valueIiED0Ev, symObjAddr: 0x1A5A0, symBinAddr: 0x10001D570, symSize: 0x10 }
  - { offsetInCU: 0xA3D84, offset: 0xA3D84, size: 0x8, addend: 0x0, symName: __ZNSt3__120__shared_ptr_emplaceIiNS_9allocatorIiEEED1Ev, symObjAddr: 0x1A5B0, symBinAddr: 0x10001BB30, symSize: 0x20 }
  - { offsetInCU: 0xA3DDE, offset: 0xA3DDE, size: 0x8, addend: 0x0, symName: __ZNSt3__120__shared_ptr_emplaceIiNS_9allocatorIiEEED0Ev, symObjAddr: 0x1A5D0, symBinAddr: 0x10001BB50, symSize: 0x30 }
  - { offsetInCU: 0xA3E46, offset: 0xA3E46, size: 0x8, addend: 0x0, symName: __ZNSt3__120__shared_ptr_emplaceIiNS_9allocatorIiEEE16__on_zero_sharedEv, symObjAddr: 0x1A600, symBinAddr: 0x10001BB80, symSize: 0x10 }
  - { offsetInCU: 0xA3EC3, offset: 0xA3EC3, size: 0x8, addend: 0x0, symName: __ZNSt3__120__shared_ptr_emplaceIiNS_9allocatorIiEEE21__on_zero_shared_weakEv, symObjAddr: 0x1A610, symBinAddr: 0x10001BB90, symSize: 0x10 }
  - { offsetInCU: 0xA3FB6, offset: 0xA3FB6, size: 0x8, addend: 0x0, symName: __ZNSt3__110shared_ptrIiED1B7v160006Ev, symObjAddr: 0x1A620, symBinAddr: 0x10001BBA0, symSize: 0x40 }
  - { offsetInCU: 0xA416B, offset: 0xA416B, size: 0x8, addend: 0x0, symName: __ZN7cxxopts6values14abstract_valueIiEC2ERKS2_, symObjAddr: 0x1A750, symBinAddr: 0x10001BCD0, symSize: 0x110 }
  - { offsetInCU: 0xA4B23, offset: 0xA4B23, size: 0x8, addend: 0x0, symName: __ZNSt3__113match_resultsINS_11__wrap_iterIPKcEENS_9allocatorINS_9sub_matchIS4_EEEEE8__assignB7v160006IS3_NS5_INS6_IS3_EEEEEEvS4_S4_RKNS0_IT_T0_EEb, symObjAddr: 0x1ACD0, symBinAddr: 0x10001C250, symSize: 0x1C0 }
  - { offsetInCU: 0xA5288, offset: 0xA5288, size: 0x8, addend: 0x0, symName: __ZN7cxxopts6values6detail11SignedCheckIiLb1EEclIjEEvbT_RKNSt3__112basic_stringIcNS6_11char_traitsIcEENS6_9allocatorIcEEEE, symObjAddr: 0x1B300, symBinAddr: 0x10001C880, symSize: 0x80 }
  - { offsetInCU: 0xA534A, offset: 0xA534A, size: 0x8, addend: 0x0, symName: __ZN7cxxopts23argument_incorrect_typeC2ERKNSt3__112basic_stringIcNS1_11char_traitsIcEENS1_9allocatorIcEEEE, symObjAddr: 0x1B0A0, symBinAddr: 0x10001C620, symSize: 0x220 }
  - { offsetInCU: 0xA5FB0, offset: 0xA5FB0, size: 0x8, addend: 0x0, symName: __ZNSt3__16vectorINS_9sub_matchINS_11__wrap_iterIPKcEEEENS_9allocatorIS6_EEE8__appendEm, symObjAddr: 0x1AE90, symBinAddr: 0x10001C410, symSize: 0x1B0 }
  - { offsetInCU: 0xA69C4, offset: 0xA69C4, size: 0x8, addend: 0x0, symName: __ZNKSt3__16vectorINS_9sub_matchINS_11__wrap_iterIPKcEEEENS_9allocatorIS6_EEE20__throw_length_errorB7v160006Ev, symObjAddr: 0x1B040, symBinAddr: 0x10001C5C0, symSize: 0x10 }
  - { offsetInCU: 0xA69EE, offset: 0xA69EE, size: 0x8, addend: 0x0, symName: __ZN7cxxopts23argument_incorrect_typeC1ERKNSt3__112basic_stringIcNS1_11char_traitsIcEENS1_9allocatorIcEEEE, symObjAddr: 0x1B050, symBinAddr: 0x10001C5D0, symSize: 0x10 }
  - { offsetInCU: 0xA69F9, offset: 0xA69F9, size: 0x8, addend: 0x0, symName: __ZN7cxxopts23argument_incorrect_typeC1ERKNSt3__112basic_stringIcNS1_11char_traitsIcEENS1_9allocatorIcEEEE, symObjAddr: 0x1B050, symBinAddr: 0x10001C5D0, symSize: 0x10 }
  - { offsetInCU: 0xA6A5A, offset: 0xA6A5A, size: 0x8, addend: 0x0, symName: __ZN7cxxopts23argument_incorrect_typeD1Ev, symObjAddr: 0x1B060, symBinAddr: 0x10001C5E0, symSize: 0x40 }
  - { offsetInCU: 0xA6C08, offset: 0xA6C08, size: 0x8, addend: 0x0, symName: __ZN7cxxopts23argument_incorrect_typeD0Ev, symObjAddr: 0x1B2C0, symBinAddr: 0x10001C840, symSize: 0x40 }
  - { offsetInCU: 0xA710C, offset: 0xA710C, size: 0x8, addend: 0x0, symName: __ZN7cxxopts6values14standard_valueIbEC1Ev, symObjAddr: 0x1B4A0, symBinAddr: 0x10001CA20, symSize: 0xE0 }
  - { offsetInCU: 0xA77AC, offset: 0xA77AC, size: 0x8, addend: 0x0, symName: __ZN7cxxopts6values14standard_valueIbEC1Ev.cold.1, symObjAddr: 0x1BF50, symBinAddr: 0x10001D620, symSize: 0x59 }
  - { offsetInCU: 0xA79BF, offset: 0xA79BF, size: 0x8, addend: 0x0, symName: __ZNSt3__120__shared_ptr_emplaceIN7cxxopts6values14standard_valueIbEENS_9allocatorIS4_EEED1Ev, symObjAddr: 0x1B580, symBinAddr: 0x10001CB00, symSize: 0x20 }
  - { offsetInCU: 0xA7A19, offset: 0xA7A19, size: 0x8, addend: 0x0, symName: __ZNSt3__120__shared_ptr_emplaceIN7cxxopts6values14standard_valueIbEENS_9allocatorIS4_EEED0Ev, symObjAddr: 0x1B5A0, symBinAddr: 0x10001CB20, symSize: 0x30 }
  - { offsetInCU: 0xA7A81, offset: 0xA7A81, size: 0x8, addend: 0x0, symName: __ZNSt3__120__shared_ptr_emplaceIN7cxxopts6values14standard_valueIbEENS_9allocatorIS4_EEE16__on_zero_sharedEv, symObjAddr: 0x1B5D0, symBinAddr: 0x10001CB50, symSize: 0x10 }
  - { offsetInCU: 0xA7AD1, offset: 0xA7AD1, size: 0x8, addend: 0x0, symName: __ZNSt3__120__shared_ptr_emplaceIN7cxxopts6values14standard_valueIbEENS_9allocatorIS4_EEE21__on_zero_shared_weakEv, symObjAddr: 0x1B5E0, symBinAddr: 0x10001CB60, symSize: 0x10 }
  - { offsetInCU: 0xA7C18, offset: 0xA7C18, size: 0x8, addend: 0x0, symName: __ZN7cxxopts6values14standard_valueIbED1Ev, symObjAddr: 0x1B5F0, symBinAddr: 0x10001CB70, symSize: 0xA0 }
  - { offsetInCU: 0xA7F48, offset: 0xA7F48, size: 0x8, addend: 0x0, symName: __ZN7cxxopts6values14standard_valueIbED0Ev, symObjAddr: 0x1B690, symBinAddr: 0x10001CC10, symSize: 0xA0 }
  - { offsetInCU: 0xA826E, offset: 0xA826E, size: 0x8, addend: 0x0, symName: __ZNK7cxxopts6values14standard_valueIbE5cloneEv, symObjAddr: 0x1B730, symBinAddr: 0x10001CCB0, symSize: 0x30 }
  - { offsetInCU: 0xA831F, offset: 0xA831F, size: 0x8, addend: 0x0, symName: __ZNK7cxxopts6values14abstract_valueIbE5parseERKNSt3__112basic_stringIcNS3_11char_traitsIcEENS3_9allocatorIcEEEE, symObjAddr: 0x1B760, symBinAddr: 0x10001CCE0, symSize: 0x20 }
  - { offsetInCU: 0xA836C, offset: 0xA836C, size: 0x8, addend: 0x0, symName: __ZNK7cxxopts6values14abstract_valueIbE5parseEv, symObjAddr: 0x1B780, symBinAddr: 0x10001CD00, symSize: 0x20 }
  - { offsetInCU: 0xA83A1, offset: 0xA83A1, size: 0x8, addend: 0x0, symName: __ZNK7cxxopts6values14abstract_valueIbE11has_defaultEv, symObjAddr: 0x1B7A0, symBinAddr: 0x10001CD20, symSize: 0x10 }
  - { offsetInCU: 0xA83C6, offset: 0xA83C6, size: 0x8, addend: 0x0, symName: __ZNK7cxxopts6values14abstract_valueIbE12is_containerEv, symObjAddr: 0x1B7B0, symBinAddr: 0x10001CD30, symSize: 0x10 }
  - { offsetInCU: 0xA83EB, offset: 0xA83EB, size: 0x8, addend: 0x0, symName: __ZNK7cxxopts6values14abstract_valueIbE12has_implicitEv, symObjAddr: 0x1B7C0, symBinAddr: 0x10001CD40, symSize: 0x10 }
  - { offsetInCU: 0xA8410, offset: 0xA8410, size: 0x8, addend: 0x0, symName: __ZNK7cxxopts6values14abstract_valueIbE17get_default_valueEv, symObjAddr: 0x1B7D0, symBinAddr: 0x10001CD50, symSize: 0x20 }
  - { offsetInCU: 0xA8437, offset: 0xA8437, size: 0x8, addend: 0x0, symName: __ZNK7cxxopts6values14abstract_valueIbE18get_implicit_valueEv, symObjAddr: 0x1B7F0, symBinAddr: 0x10001CD70, symSize: 0x20 }
  - { offsetInCU: 0xA845E, offset: 0xA845E, size: 0x8, addend: 0x0, symName: __ZN7cxxopts6values14abstract_valueIbE13default_valueERKNSt3__112basic_stringIcNS3_11char_traitsIcEENS3_9allocatorIcEEEE, symObjAddr: 0x1B810, symBinAddr: 0x10001CD90, symSize: 0x50 }
  - { offsetInCU: 0xA84EF, offset: 0xA84EF, size: 0x8, addend: 0x0, symName: __ZN7cxxopts6values14abstract_valueIbE14implicit_valueERKNSt3__112basic_stringIcNS3_11char_traitsIcEENS3_9allocatorIcEEEE, symObjAddr: 0x1B860, symBinAddr: 0x10001CDE0, symSize: 0x50 }
  - { offsetInCU: 0xA84FA, offset: 0xA84FA, size: 0x8, addend: 0x0, symName: __ZN7cxxopts6values14abstract_valueIbE14implicit_valueERKNSt3__112basic_stringIcNS3_11char_traitsIcEENS3_9allocatorIcEEEE, symObjAddr: 0x1B860, symBinAddr: 0x10001CDE0, symSize: 0x50 }
  - { offsetInCU: 0xA858B, offset: 0xA858B, size: 0x8, addend: 0x0, symName: __ZN7cxxopts6values14abstract_valueIbE17no_implicit_valueEv, symObjAddr: 0x1B8B0, symBinAddr: 0x10001CE30, symSize: 0x50 }
  - { offsetInCU: 0xA8596, offset: 0xA8596, size: 0x8, addend: 0x0, symName: __ZN7cxxopts6values14abstract_valueIbE17no_implicit_valueEv, symObjAddr: 0x1B8B0, symBinAddr: 0x10001CE30, symSize: 0x50 }
  - { offsetInCU: 0xA8622, offset: 0xA8622, size: 0x8, addend: 0x0, symName: __ZNK7cxxopts6values14abstract_valueIbE10is_booleanEv, symObjAddr: 0x1B900, symBinAddr: 0x10001CE80, symSize: 0x10 }
  - { offsetInCU: 0xA8647, offset: 0xA8647, size: 0x8, addend: 0x0, symName: __ZN7cxxopts6values14abstract_valueIbED1Ev, symObjAddr: 0x1B910, symBinAddr: 0x10001D580, symSize: 0x10 }
  - { offsetInCU: 0xA8670, offset: 0xA8670, size: 0x8, addend: 0x0, symName: __ZN7cxxopts6values14abstract_valueIbED0Ev, symObjAddr: 0x1B920, symBinAddr: 0x10001D590, symSize: 0x10 }
  - { offsetInCU: 0xA86B6, offset: 0xA86B6, size: 0x8, addend: 0x0, symName: __ZNSt3__120__shared_ptr_emplaceIbNS_9allocatorIbEEED1Ev, symObjAddr: 0x1B930, symBinAddr: 0x10001CE90, symSize: 0x20 }
  - { offsetInCU: 0xA8710, offset: 0xA8710, size: 0x8, addend: 0x0, symName: __ZNSt3__120__shared_ptr_emplaceIbNS_9allocatorIbEEED0Ev, symObjAddr: 0x1B950, symBinAddr: 0x10001CEB0, symSize: 0x30 }
  - { offsetInCU: 0xA8778, offset: 0xA8778, size: 0x8, addend: 0x0, symName: __ZNSt3__120__shared_ptr_emplaceIbNS_9allocatorIbEEE16__on_zero_sharedEv, symObjAddr: 0x1B980, symBinAddr: 0x10001CEE0, symSize: 0x10 }
  - { offsetInCU: 0xA87F5, offset: 0xA87F5, size: 0x8, addend: 0x0, symName: __ZNSt3__120__shared_ptr_emplaceIbNS_9allocatorIbEEE21__on_zero_shared_weakEv, symObjAddr: 0x1B990, symBinAddr: 0x10001CEF0, symSize: 0x10 }
  - { offsetInCU: 0xA88E8, offset: 0xA88E8, size: 0x8, addend: 0x0, symName: __ZNSt3__110shared_ptrIbED1B7v160006Ev, symObjAddr: 0x1B9A0, symBinAddr: 0x10001CF00, symSize: 0x40 }
  - { offsetInCU: 0xA8A3E, offset: 0xA8A3E, size: 0x8, addend: 0x0, symName: __ZN7cxxopts6values14abstract_valueIbEC2ERKS2_, symObjAddr: 0x1BAD0, symBinAddr: 0x10001D030, symSize: 0x110 }
...
